
log_exe:     file format elf32-littleriscv


Disassembly of section .text:

000100b4 <exit>:
   100b4:	1141                	c.addi	sp,-16
   100b6:	4581                	c.li	a1,0
   100b8:	c422                	c.swsp	s0,8(sp)
   100ba:	c606                	c.swsp	ra,12(sp)
   100bc:	842a                	c.mv	s0,a0
   100be:	40e010ef          	jal	ra,114cc <__call_exitprocs>
   100c2:	f241a783          	lw	a5,-220(gp) # 1e734 <__stdio_exit_handler>
   100c6:	c391                	c.beqz	a5,100ca <exit+0x16>
   100c8:	9782                	c.jalr	a5
   100ca:	8522                	c.mv	a0,s0
   100cc:	541080ef          	jal	ra,18e0c <_exit>

000100d0 <main>:
   100d0:	1141                	c.addi	sp,-16
   100d2:	c606                	c.swsp	ra,12(sp)
   100d4:	4785                	c.li	a5,1
   100d6:	00a7c963          	blt	a5,a0,100e8 <main+0x18>
   100da:	10000593          	addi	a1,zero,256
   100de:	04000513          	addi	a0,zero,64
   100e2:	22e9                	c.jal	102ac <aligned_alloc>
   100e4:	c531                	c.beqz	a0,10130 <main+0x60>
   100e6:	a001                	c.j	100e6 <main+0x16>
   100e8:	41c8                	c.lw	a0,4(a1)
   100ea:	c422                	c.swsp	s0,8(sp)
   100ec:	c226                	c.swsp	s1,4(sp)
   100ee:	7ac000ef          	jal	ra,1089a <atoll>
   100f2:	00251593          	slli	a1,a0,0x2
   100f6:	84aa                	c.mv	s1,a0
   100f8:	04000513          	addi	a0,zero,64
   100fc:	2a45                	c.jal	102ac <aligned_alloc>
   100fe:	842a                	c.mv	s0,a0
   10100:	c515                	c.beqz	a0,1012c <main+0x5c>
   10102:	c481                	c.beqz	s1,1010a <main+0x3a>
   10104:	4422                	c.lwsp	s0,8(sp)
   10106:	4492                	c.lwsp	s1,4(sp)
   10108:	bff9                	c.j	100e6 <main+0x16>
   1010a:	4108                	c.lw	a0,0(a0)
   1010c:	20e1                	c.jal	101d4 <__extendsfdf2>
   1010e:	862a                	c.mv	a2,a0
   10110:	6575                	c.lui	a0,0x1d
   10112:	86ae                	c.mv	a3,a1
   10114:	c0850513          	addi	a0,a0,-1016 # 1cc08 <__extenddftf2+0x172>
   10118:	4cf000ef          	jal	ra,10de6 <printf>
   1011c:	8522                	c.mv	a0,s0
   1011e:	224d                	c.jal	102c0 <free>
   10120:	4422                	c.lwsp	s0,8(sp)
   10122:	4492                	c.lwsp	s1,4(sp)
   10124:	4501                	c.li	a0,0
   10126:	40b2                	c.lwsp	ra,12(sp)
   10128:	0141                	c.addi	sp,16
   1012a:	8082                	c.jr	ra
   1012c:	4422                	c.lwsp	s0,8(sp)
   1012e:	4492                	c.lwsp	s1,4(sp)
   10130:	6575                	c.lui	a0,0x1d
   10132:	c0050513          	addi	a0,a0,-1024 # 1cc00 <__extenddftf2+0x16a>
   10136:	481000ef          	jal	ra,10db6 <perror>
   1013a:	4505                	c.li	a0,1
   1013c:	b7ed                	c.j	10126 <main+0x56>

0001013e <register_fini>:
   1013e:	00000793          	addi	a5,zero,0
   10142:	c791                	c.beqz	a5,1014e <register_fini+0x10>
   10144:	6551                	c.lui	a0,0x14
   10146:	66450513          	addi	a0,a0,1636 # 14664 <__libc_fini_array>
   1014a:	4500106f          	jal	zero,1159a <atexit>
   1014e:	8082                	c.jr	ra

00010150 <_start>:
   10150:	0000e197          	auipc	gp,0xe
   10154:	6c018193          	addi	gp,gp,1728 # 1e810 <__global_pointer$>
   10158:	f1818513          	addi	a0,gp,-232 # 1e728 <__malloc_max_total_mem>
   1015c:	24418613          	addi	a2,gp,580 # 1ea54 <__BSS_END__>
   10160:	8e09                	c.sub	a2,a0
   10162:	4581                	c.li	a1,0
   10164:	25c010ef          	jal	ra,113c0 <memset>
   10168:	00001517          	auipc	a0,0x1
   1016c:	43250513          	addi	a0,a0,1074 # 1159a <atexit>
   10170:	c519                	c.beqz	a0,1017e <_start+0x2e>
   10172:	00004517          	auipc	a0,0x4
   10176:	4f250513          	addi	a0,a0,1266 # 14664 <__libc_fini_array>
   1017a:	420010ef          	jal	ra,1159a <atexit>
   1017e:	1d8010ef          	jal	ra,11356 <__libc_init_array>
   10182:	4502                	c.lwsp	a0,0(sp)
   10184:	004c                	c.addi4spn	a1,sp,4
   10186:	4601                	c.li	a2,0
   10188:	37a1                	c.jal	100d0 <main>
   1018a:	b72d                	c.j	100b4 <exit>

0001018c <__do_global_dtors_aux>:
   1018c:	1141                	c.addi	sp,-16
   1018e:	c422                	c.swsp	s0,8(sp)
   10190:	f381c783          	lbu	a5,-200(gp) # 1e748 <completed.1>
   10194:	c606                	c.swsp	ra,12(sp)
   10196:	ef91                	c.bnez	a5,101b2 <__do_global_dtors_aux+0x26>
   10198:	00000793          	addi	a5,zero,0
   1019c:	cb81                	c.beqz	a5,101ac <__do_global_dtors_aux+0x20>
   1019e:	6579                	c.lui	a0,0x1e
   101a0:	dd050513          	addi	a0,a0,-560 # 1ddd0 <__EH_FRAME_BEGIN__>
   101a4:	00000097          	auipc	ra,0x0
   101a8:	000000e7          	jalr	ra,0(zero) # 0 <exit-0x100b4>
   101ac:	4785                	c.li	a5,1
   101ae:	f2f18c23          	sb	a5,-200(gp) # 1e748 <completed.1>
   101b2:	40b2                	c.lwsp	ra,12(sp)
   101b4:	4422                	c.lwsp	s0,8(sp)
   101b6:	0141                	c.addi	sp,16
   101b8:	8082                	c.jr	ra

000101ba <frame_dummy>:
   101ba:	00000793          	addi	a5,zero,0
   101be:	cb91                	c.beqz	a5,101d2 <frame_dummy+0x18>
   101c0:	6579                	c.lui	a0,0x1e
   101c2:	f3c18593          	addi	a1,gp,-196 # 1e74c <object.0>
   101c6:	dd050513          	addi	a0,a0,-560 # 1ddd0 <__EH_FRAME_BEGIN__>
   101ca:	00000317          	auipc	t1,0x0
   101ce:	00000067          	jalr	zero,0(zero) # 0 <exit-0x100b4>
   101d2:	8082                	c.jr	ra

000101d4 <__extendsfdf2>:
   101d4:	01755713          	srli	a4,a0,0x17
   101d8:	0ff77713          	andi	a4,a4,255
   101dc:	1101                	c.addi	sp,-32
   101de:	00170793          	addi	a5,a4,1
   101e2:	cc22                	c.swsp	s0,24(sp)
   101e4:	ca26                	c.swsp	s1,20(sp)
   101e6:	00951413          	slli	s0,a0,0x9
   101ea:	ce06                	c.swsp	ra,28(sp)
   101ec:	c84a                	c.swsp	s2,16(sp)
   101ee:	c64e                	c.swsp	s3,12(sp)
   101f0:	0fe7f793          	andi	a5,a5,254
   101f4:	8025                	c.srli	s0,0x9
   101f6:	01f55493          	srli	s1,a0,0x1f
   101fa:	c79d                	c.beqz	a5,10228 <__extendsfdf2+0x54>
   101fc:	00345793          	srli	a5,s0,0x3
   10200:	38070713          	addi	a4,a4,896
   10204:	0476                	c.slli	s0,0x1d
   10206:	07b2                	c.slli	a5,0xc
   10208:	83b1                	c.srli	a5,0xc
   1020a:	0752                	c.slli	a4,0x14
   1020c:	01f49513          	slli	a0,s1,0x1f
   10210:	8f5d                	c.or	a4,a5
   10212:	40f2                	c.lwsp	ra,28(sp)
   10214:	00a767b3          	or	a5,a4,a0
   10218:	8522                	c.mv	a0,s0
   1021a:	4462                	c.lwsp	s0,24(sp)
   1021c:	44d2                	c.lwsp	s1,20(sp)
   1021e:	4942                	c.lwsp	s2,16(sp)
   10220:	49b2                	c.lwsp	s3,12(sp)
   10222:	85be                	c.mv	a1,a5
   10224:	6105                	c.addi16sp	sp,32
   10226:	8082                	c.jr	ra
   10228:	eb15                	c.bnez	a4,1025c <__extendsfdf2+0x88>
   1022a:	4781                	c.li	a5,0
   1022c:	dc69                	c.beqz	s0,10206 <__extendsfdf2+0x32>
   1022e:	8522                	c.mv	a0,s0
   10230:	2089                	c.jal	10272 <__clzsi2>
   10232:	47a9                	c.li	a5,10
   10234:	00a7ce63          	blt	a5,a0,10250 <__extendsfdf2+0x7c>
   10238:	47ad                	c.li	a5,11
   1023a:	8f89                	c.sub	a5,a0
   1023c:	01550713          	addi	a4,a0,21
   10240:	00f457b3          	srl	a5,s0,a5
   10244:	00e41433          	sll	s0,s0,a4
   10248:	38900713          	addi	a4,zero,905
   1024c:	8f09                	c.sub	a4,a0
   1024e:	bf65                	c.j	10206 <__extendsfdf2+0x32>
   10250:	ff550793          	addi	a5,a0,-11
   10254:	00f417b3          	sll	a5,s0,a5
   10258:	4401                	c.li	s0,0
   1025a:	b7fd                	c.j	10248 <__extendsfdf2+0x74>
   1025c:	4781                	c.li	a5,0
   1025e:	c419                	c.beqz	s0,1026c <__extendsfdf2+0x98>
   10260:	00345793          	srli	a5,s0,0x3
   10264:	00080737          	lui	a4,0x80
   10268:	0476                	c.slli	s0,0x1d
   1026a:	8fd9                	c.or	a5,a4
   1026c:	7ff00713          	addi	a4,zero,2047
   10270:	bf59                	c.j	10206 <__extendsfdf2+0x32>

00010272 <__clzsi2>:
   10272:	67c1                	c.lui	a5,0x10
   10274:	02f57563          	bgeu	a0,a5,1029e <__clzsi2+0x2c>
   10278:	10053793          	sltiu	a5,a0,256
   1027c:	0017b793          	sltiu	a5,a5,1
   10280:	078e                	c.slli	a5,0x3
   10282:	6775                	c.lui	a4,0x1d
   10284:	02000693          	addi	a3,zero,32
   10288:	8e9d                	c.sub	a3,a5
   1028a:	00f55533          	srl	a0,a0,a5
   1028e:	46870793          	addi	a5,a4,1128 # 1d468 <__clz_tab>
   10292:	97aa                	c.add	a5,a0
   10294:	0007c503          	lbu	a0,0(a5) # 10000 <exit-0xb4>
   10298:	40a68533          	sub	a0,a3,a0
   1029c:	8082                	c.jr	ra
   1029e:	01000737          	lui	a4,0x1000
   102a2:	47e1                	c.li	a5,24
   102a4:	fce57fe3          	bgeu	a0,a4,10282 <__clzsi2+0x10>
   102a8:	47c1                	c.li	a5,16
   102aa:	bfe1                	c.j	10282 <__clzsi2+0x10>

000102ac <aligned_alloc>:
   102ac:	87aa                	c.mv	a5,a0
   102ae:	f141a503          	lw	a0,-236(gp) # 1e724 <_impure_ptr>
   102b2:	862e                	c.mv	a2,a1
   102b4:	85be                	c.mv	a1,a5
   102b6:	abd5                	c.j	108aa <_memalign_r>

000102b8 <malloc>:
   102b8:	85aa                	c.mv	a1,a0
   102ba:	f141a503          	lw	a0,-236(gp) # 1e724 <_impure_ptr>
   102be:	a031                	c.j	102ca <_malloc_r>

000102c0 <free>:
   102c0:	85aa                	c.mv	a1,a0
   102c2:	f141a503          	lw	a0,-236(gp) # 1e724 <_impure_ptr>
   102c6:	3a40106f          	jal	zero,1166a <_free_r>

000102ca <_malloc_r>:
   102ca:	7179                	c.addi16sp	sp,-48
   102cc:	ce4e                	c.swsp	s3,28(sp)
   102ce:	d606                	c.swsp	ra,44(sp)
   102d0:	d422                	c.swsp	s0,40(sp)
   102d2:	d226                	c.swsp	s1,36(sp)
   102d4:	d04a                	c.swsp	s2,32(sp)
   102d6:	00b58793          	addi	a5,a1,11
   102da:	4759                	c.li	a4,22
   102dc:	89aa                	c.mv	s3,a0
   102de:	04f76763          	bltu	a4,a5,1032c <_malloc_r+0x62>
   102e2:	44c1                	c.li	s1,16
   102e4:	16b4e763          	bltu	s1,a1,10452 <_malloc_r+0x188>
   102e8:	237d                	c.jal	10896 <__malloc_lock>
   102ea:	47e1                	c.li	a5,24
   102ec:	4589                	c.li	a1,2
   102ee:	6979                	c.lui	s2,0x1e
   102f0:	01090913          	addi	s2,s2,16 # 1e010 <__malloc_av_>
   102f4:	97ca                	c.add	a5,s2
   102f6:	43c0                	c.lw	s0,4(a5)
   102f8:	ff878713          	addi	a4,a5,-8
   102fc:	30e40663          	beq	s0,a4,10608 <_malloc_r+0x33e>
   10300:	405c                	c.lw	a5,4(s0)
   10302:	4454                	c.lw	a3,12(s0)
   10304:	4410                	c.lw	a2,8(s0)
   10306:	9bf1                	c.andi	a5,-4
   10308:	97a2                	c.add	a5,s0
   1030a:	43d8                	c.lw	a4,4(a5)
   1030c:	c654                	c.sw	a3,12(a2)
   1030e:	c690                	c.sw	a2,8(a3)
   10310:	00176713          	ori	a4,a4,1
   10314:	854e                	c.mv	a0,s3
   10316:	c3d8                	c.sw	a4,4(a5)
   10318:	2341                	c.jal	10898 <__malloc_unlock>
   1031a:	50b2                	c.lwsp	ra,44(sp)
   1031c:	00840513          	addi	a0,s0,8
   10320:	5422                	c.lwsp	s0,40(sp)
   10322:	5492                	c.lwsp	s1,36(sp)
   10324:	5902                	c.lwsp	s2,32(sp)
   10326:	49f2                	c.lwsp	s3,28(sp)
   10328:	6145                	c.addi16sp	sp,48
   1032a:	8082                	c.jr	ra
   1032c:	ff87f493          	andi	s1,a5,-8
   10330:	1207c163          	blt	a5,zero,10452 <_malloc_r+0x188>
   10334:	10b4ef63          	bltu	s1,a1,10452 <_malloc_r+0x188>
   10338:	2bb9                	c.jal	10896 <__malloc_lock>
   1033a:	1f700793          	addi	a5,zero,503
   1033e:	3897f463          	bgeu	a5,s1,106c6 <_malloc_r+0x3fc>
   10342:	0094d793          	srli	a5,s1,0x9
   10346:	12078163          	beq	a5,zero,10468 <_malloc_r+0x19e>
   1034a:	4711                	c.li	a4,4
   1034c:	30f76363          	bltu	a4,a5,10652 <_malloc_r+0x388>
   10350:	0064d793          	srli	a5,s1,0x6
   10354:	03978593          	addi	a1,a5,57
   10358:	03878813          	addi	a6,a5,56
   1035c:	00359613          	slli	a2,a1,0x3
   10360:	6979                	c.lui	s2,0x1e
   10362:	01090913          	addi	s2,s2,16 # 1e010 <__malloc_av_>
   10366:	964a                	c.add	a2,s2
   10368:	4240                	c.lw	s0,4(a2)
   1036a:	1661                	c.addi	a2,-8
   1036c:	02860163          	beq	a2,s0,1038e <_malloc_r+0xc4>
   10370:	453d                	c.li	a0,15
   10372:	a039                	c.j	10380 <_malloc_r+0xb6>
   10374:	4454                	c.lw	a3,12(s0)
   10376:	26075663          	bge	a4,zero,105e2 <_malloc_r+0x318>
   1037a:	00d60a63          	beq	a2,a3,1038e <_malloc_r+0xc4>
   1037e:	8436                	c.mv	s0,a3
   10380:	405c                	c.lw	a5,4(s0)
   10382:	9bf1                	c.andi	a5,-4
   10384:	40978733          	sub	a4,a5,s1
   10388:	fee556e3          	bge	a0,a4,10374 <_malloc_r+0xaa>
   1038c:	85c2                	c.mv	a1,a6
   1038e:	01092403          	lw	s0,16(s2)
   10392:	6879                	c.lui	a6,0x1e
   10394:	01880813          	addi	a6,a6,24 # 1e018 <__malloc_av_+0x8>
   10398:	1f040b63          	beq	s0,a6,1058e <_malloc_r+0x2c4>
   1039c:	405c                	c.lw	a5,4(s0)
   1039e:	46bd                	c.li	a3,15
   103a0:	9bf1                	c.andi	a5,-4
   103a2:	40978733          	sub	a4,a5,s1
   103a6:	32e6c563          	blt	a3,a4,106d0 <_malloc_r+0x406>
   103aa:	01092a23          	sw	a6,20(s2)
   103ae:	01092823          	sw	a6,16(s2)
   103b2:	30075063          	bge	a4,zero,106b2 <_malloc_r+0x3e8>
   103b6:	1ff00713          	addi	a4,zero,511
   103ba:	00492503          	lw	a0,4(s2)
   103be:	24f76a63          	bltu	a4,a5,10612 <_malloc_r+0x348>
   103c2:	ff87f713          	andi	a4,a5,-8
   103c6:	0721                	c.addi	a4,8 # 1000008 <__BSS_END__+0xfe15b4>
   103c8:	974a                	c.add	a4,s2
   103ca:	4314                	c.lw	a3,0(a4)
   103cc:	0057d613          	srli	a2,a5,0x5
   103d0:	4785                	c.li	a5,1
   103d2:	00c797b3          	sll	a5,a5,a2
   103d6:	8d5d                	c.or	a0,a5
   103d8:	ff870793          	addi	a5,a4,-8
   103dc:	c414                	c.sw	a3,8(s0)
   103de:	c45c                	c.sw	a5,12(s0)
   103e0:	00a92223          	sw	a0,4(s2)
   103e4:	c300                	c.sw	s0,0(a4)
   103e6:	c6c0                	c.sw	s0,12(a3)
   103e8:	4025d793          	srai	a5,a1,0x2
   103ec:	4605                	c.li	a2,1
   103ee:	00f61633          	sll	a2,a2,a5
   103f2:	08c56263          	bltu	a0,a2,10476 <_malloc_r+0x1ac>
   103f6:	00a677b3          	and	a5,a2,a0
   103fa:	ef81                	c.bnez	a5,10412 <_malloc_r+0x148>
   103fc:	0606                	c.slli	a2,0x1
   103fe:	99f1                	c.andi	a1,-4
   10400:	00a677b3          	and	a5,a2,a0
   10404:	0591                	c.addi	a1,4
   10406:	e791                	c.bnez	a5,10412 <_malloc_r+0x148>
   10408:	0606                	c.slli	a2,0x1
   1040a:	00a677b3          	and	a5,a2,a0
   1040e:	0591                	c.addi	a1,4
   10410:	dfe5                	c.beqz	a5,10408 <_malloc_r+0x13e>
   10412:	48bd                	c.li	a7,15
   10414:	00359313          	slli	t1,a1,0x3
   10418:	934a                	c.add	t1,s2
   1041a:	851a                	c.mv	a0,t1
   1041c:	455c                	c.lw	a5,12(a0)
   1041e:	8e2e                	c.mv	t3,a1
   10420:	24f50963          	beq	a0,a5,10672 <_malloc_r+0x3a8>
   10424:	43d8                	c.lw	a4,4(a5)
   10426:	843e                	c.mv	s0,a5
   10428:	47dc                	c.lw	a5,12(a5)
   1042a:	9b71                	c.andi	a4,-4
   1042c:	409706b3          	sub	a3,a4,s1
   10430:	24d8c863          	blt	a7,a3,10680 <_malloc_r+0x3b6>
   10434:	fe06c6e3          	blt	a3,zero,10420 <_malloc_r+0x156>
   10438:	9722                	c.add	a4,s0
   1043a:	4354                	c.lw	a3,4(a4)
   1043c:	4410                	c.lw	a2,8(s0)
   1043e:	854e                	c.mv	a0,s3
   10440:	0016e693          	ori	a3,a3,1
   10444:	c354                	c.sw	a3,4(a4)
   10446:	c65c                	c.sw	a5,12(a2)
   10448:	c790                	c.sw	a2,8(a5)
   1044a:	21b9                	c.jal	10898 <__malloc_unlock>
   1044c:	00840513          	addi	a0,s0,8
   10450:	a029                	c.j	1045a <_malloc_r+0x190>
   10452:	47b1                	c.li	a5,12
   10454:	00f9a023          	sw	a5,0(s3)
   10458:	4501                	c.li	a0,0
   1045a:	50b2                	c.lwsp	ra,44(sp)
   1045c:	5422                	c.lwsp	s0,40(sp)
   1045e:	5492                	c.lwsp	s1,36(sp)
   10460:	5902                	c.lwsp	s2,32(sp)
   10462:	49f2                	c.lwsp	s3,28(sp)
   10464:	6145                	c.addi16sp	sp,48
   10466:	8082                	c.jr	ra
   10468:	20000613          	addi	a2,zero,512
   1046c:	04000593          	addi	a1,zero,64
   10470:	03f00813          	addi	a6,zero,63
   10474:	b5f5                	c.j	10360 <_malloc_r+0x96>
   10476:	00892403          	lw	s0,8(s2)
   1047a:	c85a                	c.swsp	s6,16(sp)
   1047c:	405c                	c.lw	a5,4(s0)
   1047e:	ffc7fb13          	andi	s6,a5,-4
   10482:	009b6763          	bltu	s6,s1,10490 <_malloc_r+0x1c6>
   10486:	409b0733          	sub	a4,s6,s1
   1048a:	47bd                	c.li	a5,15
   1048c:	12e7c663          	blt	a5,a4,105b8 <_malloc_r+0x2ee>
   10490:	c266                	c.swsp	s9,4(sp)
   10492:	ca56                	c.swsp	s5,20(sp)
   10494:	f0c1a703          	lw	a4,-244(gp) # 1e71c <__malloc_sbrk_base>
   10498:	f201aa83          	lw	s5,-224(gp) # 1e730 <__malloc_top_pad>
   1049c:	cc52                	c.swsp	s4,24(sp)
   1049e:	c65e                	c.swsp	s7,12(sp)
   104a0:	57fd                	c.li	a5,-1
   104a2:	9aa6                	c.add	s5,s1
   104a4:	01640a33          	add	s4,s0,s6
   104a8:	2cf70263          	beq	a4,a5,1076c <_malloc_r+0x4a2>
   104ac:	6785                	c.lui	a5,0x1
   104ae:	07bd                	c.addi	a5,15 # 100f <exit-0xf0a5>
   104b0:	9abe                	c.add	s5,a5
   104b2:	77fd                	c.lui	a5,0xfffff
   104b4:	00fafab3          	and	s5,s5,a5
   104b8:	85d6                	c.mv	a1,s5
   104ba:	854e                	c.mv	a0,s3
   104bc:	629000ef          	jal	ra,112e4 <_sbrk_r>
   104c0:	57fd                	c.li	a5,-1
   104c2:	8baa                	c.mv	s7,a0
   104c4:	32f50b63          	beq	a0,a5,107fa <_malloc_r+0x530>
   104c8:	c462                	c.swsp	s8,8(sp)
   104ca:	0d456563          	bltu	a0,s4,10594 <_malloc_r+0x2ca>
   104ce:	f5418c13          	addi	s8,gp,-172 # 1e764 <__malloc_current_mallinfo>
   104d2:	000c2583          	lw	a1,0(s8)
   104d6:	95d6                	c.add	a1,s5
   104d8:	00bc2023          	sw	a1,0(s8)
   104dc:	872e                	c.mv	a4,a1
   104de:	32aa0263          	beq	s4,a0,10802 <_malloc_r+0x538>
   104e2:	f0c1a683          	lw	a3,-244(gp) # 1e71c <__malloc_sbrk_base>
   104e6:	57fd                	c.li	a5,-1
   104e8:	32f68a63          	beq	a3,a5,1081c <_malloc_r+0x552>
   104ec:	414b87b3          	sub	a5,s7,s4
   104f0:	97ba                	c.add	a5,a4
   104f2:	00fc2023          	sw	a5,0(s8)
   104f6:	007bfc93          	andi	s9,s7,7
   104fa:	280c8363          	beq	s9,zero,10780 <_malloc_r+0x4b6>
   104fe:	419b8bb3          	sub	s7,s7,s9
   10502:	6585                	c.lui	a1,0x1
   10504:	0ba1                	c.addi	s7,8
   10506:	05a1                	c.addi	a1,8 # 1008 <exit-0xf0ac>
   10508:	9ade                	c.add	s5,s7
   1050a:	419585b3          	sub	a1,a1,s9
   1050e:	415585b3          	sub	a1,a1,s5
   10512:	05d2                	c.slli	a1,0x14
   10514:	0145da13          	srli	s4,a1,0x14
   10518:	85d2                	c.mv	a1,s4
   1051a:	854e                	c.mv	a0,s3
   1051c:	5c9000ef          	jal	ra,112e4 <_sbrk_r>
   10520:	57fd                	c.li	a5,-1
   10522:	32f50963          	beq	a0,a5,10854 <_malloc_r+0x58a>
   10526:	41750533          	sub	a0,a0,s7
   1052a:	01450ab3          	add	s5,a0,s4
   1052e:	000c2703          	lw	a4,0(s8)
   10532:	01792423          	sw	s7,8(s2)
   10536:	001ae793          	ori	a5,s5,1
   1053a:	00ea05b3          	add	a1,s4,a4
   1053e:	00fba223          	sw	a5,4(s7)
   10542:	00bc2023          	sw	a1,0(s8)
   10546:	03240563          	beq	s0,s2,10570 <_malloc_r+0x2a6>
   1054a:	46bd                	c.li	a3,15
   1054c:	2566fa63          	bgeu	a3,s6,107a0 <_malloc_r+0x4d6>
   10550:	4058                	c.lw	a4,4(s0)
   10552:	ff4b0793          	addi	a5,s6,-12
   10556:	9be1                	c.andi	a5,-8
   10558:	8b05                	c.andi	a4,1
   1055a:	8f5d                	c.or	a4,a5
   1055c:	c058                	c.sw	a4,4(s0)
   1055e:	4615                	c.li	a2,5
   10560:	00f40733          	add	a4,s0,a5
   10564:	c350                	c.sw	a2,4(a4)
   10566:	c710                	c.sw	a2,8(a4)
   10568:	1ef6e863          	bltu	a3,a5,10758 <_malloc_r+0x48e>
   1056c:	004ba783          	lw	a5,4(s7)
   10570:	f1c1a683          	lw	a3,-228(gp) # 1e72c <__malloc_max_sbrked_mem>
   10574:	00b6f463          	bgeu	a3,a1,1057c <_malloc_r+0x2b2>
   10578:	f0b1ae23          	sw	a1,-228(gp) # 1e72c <__malloc_max_sbrked_mem>
   1057c:	f181a683          	lw	a3,-232(gp) # 1e728 <__malloc_max_total_mem>
   10580:	00b6f463          	bgeu	a3,a1,10588 <_malloc_r+0x2be>
   10584:	f0b1ac23          	sw	a1,-232(gp) # 1e728 <__malloc_max_total_mem>
   10588:	4c22                	c.lwsp	s8,8(sp)
   1058a:	845e                	c.mv	s0,s7
   1058c:	a811                	c.j	105a0 <_malloc_r+0x2d6>
   1058e:	00492503          	lw	a0,4(s2)
   10592:	bd99                	c.j	103e8 <_malloc_r+0x11e>
   10594:	25240b63          	beq	s0,s2,107ea <_malloc_r+0x520>
   10598:	00892403          	lw	s0,8(s2)
   1059c:	4c22                	c.lwsp	s8,8(sp)
   1059e:	405c                	c.lw	a5,4(s0)
   105a0:	9bf1                	c.andi	a5,-4
   105a2:	40978733          	sub	a4,a5,s1
   105a6:	2097e163          	bltu	a5,s1,107a8 <_malloc_r+0x4de>
   105aa:	47bd                	c.li	a5,15
   105ac:	1ee7de63          	bge	a5,a4,107a8 <_malloc_r+0x4de>
   105b0:	4a62                	c.lwsp	s4,24(sp)
   105b2:	4ad2                	c.lwsp	s5,20(sp)
   105b4:	4bb2                	c.lwsp	s7,12(sp)
   105b6:	4c92                	c.lwsp	s9,4(sp)
   105b8:	0014e793          	ori	a5,s1,1
   105bc:	c05c                	c.sw	a5,4(s0)
   105be:	94a2                	c.add	s1,s0
   105c0:	00992423          	sw	s1,8(s2)
   105c4:	00176713          	ori	a4,a4,1
   105c8:	854e                	c.mv	a0,s3
   105ca:	c0d8                	c.sw	a4,4(s1)
   105cc:	24f1                	c.jal	10898 <__malloc_unlock>
   105ce:	50b2                	c.lwsp	ra,44(sp)
   105d0:	00840513          	addi	a0,s0,8
   105d4:	5422                	c.lwsp	s0,40(sp)
   105d6:	4b42                	c.lwsp	s6,16(sp)
   105d8:	5492                	c.lwsp	s1,36(sp)
   105da:	5902                	c.lwsp	s2,32(sp)
   105dc:	49f2                	c.lwsp	s3,28(sp)
   105de:	6145                	c.addi16sp	sp,48
   105e0:	8082                	c.jr	ra
   105e2:	4410                	c.lw	a2,8(s0)
   105e4:	97a2                	c.add	a5,s0
   105e6:	43d8                	c.lw	a4,4(a5)
   105e8:	c654                	c.sw	a3,12(a2)
   105ea:	c690                	c.sw	a2,8(a3)
   105ec:	00176713          	ori	a4,a4,1
   105f0:	854e                	c.mv	a0,s3
   105f2:	c3d8                	c.sw	a4,4(a5)
   105f4:	2455                	c.jal	10898 <__malloc_unlock>
   105f6:	50b2                	c.lwsp	ra,44(sp)
   105f8:	00840513          	addi	a0,s0,8
   105fc:	5422                	c.lwsp	s0,40(sp)
   105fe:	5492                	c.lwsp	s1,36(sp)
   10600:	5902                	c.lwsp	s2,32(sp)
   10602:	49f2                	c.lwsp	s3,28(sp)
   10604:	6145                	c.addi16sp	sp,48
   10606:	8082                	c.jr	ra
   10608:	47c0                	c.lw	s0,12(a5)
   1060a:	0589                	c.addi	a1,2
   1060c:	d88781e3          	beq	a5,s0,1038e <_malloc_r+0xc4>
   10610:	b9c5                	c.j	10300 <_malloc_r+0x36>
   10612:	0097d713          	srli	a4,a5,0x9
   10616:	4691                	c.li	a3,4
   10618:	0ee6f263          	bgeu	a3,a4,106fc <_malloc_r+0x432>
   1061c:	46d1                	c.li	a3,20
   1061e:	18e6ed63          	bltu	a3,a4,107b8 <_malloc_r+0x4ee>
   10622:	05c70613          	addi	a2,a4,92
   10626:	060e                	c.slli	a2,0x3
   10628:	05b70693          	addi	a3,a4,91
   1062c:	964a                	c.add	a2,s2
   1062e:	4218                	c.lw	a4,0(a2)
   10630:	1661                	c.addi	a2,-8
   10632:	00e61663          	bne	a2,a4,1063e <_malloc_r+0x374>
   10636:	aa2d                	c.j	10770 <_malloc_r+0x4a6>
   10638:	4718                	c.lw	a4,8(a4)
   1063a:	00e60663          	beq	a2,a4,10646 <_malloc_r+0x37c>
   1063e:	4354                	c.lw	a3,4(a4)
   10640:	9af1                	c.andi	a3,-4
   10642:	fed7ebe3          	bltu	a5,a3,10638 <_malloc_r+0x36e>
   10646:	4750                	c.lw	a2,12(a4)
   10648:	c450                	c.sw	a2,12(s0)
   1064a:	c418                	c.sw	a4,8(s0)
   1064c:	c600                	c.sw	s0,8(a2)
   1064e:	c740                	c.sw	s0,12(a4)
   10650:	bb61                	c.j	103e8 <_malloc_r+0x11e>
   10652:	4751                	c.li	a4,20
   10654:	0af77c63          	bgeu	a4,a5,1070c <_malloc_r+0x442>
   10658:	05400713          	addi	a4,zero,84
   1065c:	16f76a63          	bltu	a4,a5,107d0 <_malloc_r+0x506>
   10660:	00c4d793          	srli	a5,s1,0xc
   10664:	06f78593          	addi	a1,a5,111 # fffff06f <__BSS_END__+0xfffe061b>
   10668:	06e78813          	addi	a6,a5,110
   1066c:	00359613          	slli	a2,a1,0x3
   10670:	b9c5                	c.j	10360 <_malloc_r+0x96>
   10672:	0e05                	c.addi	t3,1
   10674:	003e7793          	andi	a5,t3,3
   10678:	0521                	c.addi	a0,8
   1067a:	c7cd                	c.beqz	a5,10724 <_malloc_r+0x45a>
   1067c:	455c                	c.lw	a5,12(a0)
   1067e:	b34d                	c.j	10420 <_malloc_r+0x156>
   10680:	4410                	c.lw	a2,8(s0)
   10682:	0014e593          	ori	a1,s1,1
   10686:	c04c                	c.sw	a1,4(s0)
   10688:	c65c                	c.sw	a5,12(a2)
   1068a:	c790                	c.sw	a2,8(a5)
   1068c:	94a2                	c.add	s1,s0
   1068e:	00992a23          	sw	s1,20(s2)
   10692:	00992823          	sw	s1,16(s2)
   10696:	0016e793          	ori	a5,a3,1
   1069a:	9722                	c.add	a4,s0
   1069c:	0104a623          	sw	a6,12(s1)
   106a0:	0104a423          	sw	a6,8(s1)
   106a4:	c0dc                	c.sw	a5,4(s1)
   106a6:	854e                	c.mv	a0,s3
   106a8:	c314                	c.sw	a3,0(a4)
   106aa:	22fd                	c.jal	10898 <__malloc_unlock>
   106ac:	00840513          	addi	a0,s0,8
   106b0:	b36d                	c.j	1045a <_malloc_r+0x190>
   106b2:	97a2                	c.add	a5,s0
   106b4:	43d8                	c.lw	a4,4(a5)
   106b6:	854e                	c.mv	a0,s3
   106b8:	00176713          	ori	a4,a4,1
   106bc:	c3d8                	c.sw	a4,4(a5)
   106be:	2ae9                	c.jal	10898 <__malloc_unlock>
   106c0:	00840513          	addi	a0,s0,8
   106c4:	bb59                	c.j	1045a <_malloc_r+0x190>
   106c6:	0034d593          	srli	a1,s1,0x3
   106ca:	00848793          	addi	a5,s1,8
   106ce:	b105                	c.j	102ee <_malloc_r+0x24>
   106d0:	0014e693          	ori	a3,s1,1
   106d4:	c054                	c.sw	a3,4(s0)
   106d6:	94a2                	c.add	s1,s0
   106d8:	00992a23          	sw	s1,20(s2)
   106dc:	00992823          	sw	s1,16(s2)
   106e0:	00176693          	ori	a3,a4,1
   106e4:	97a2                	c.add	a5,s0
   106e6:	0104a623          	sw	a6,12(s1)
   106ea:	0104a423          	sw	a6,8(s1)
   106ee:	c0d4                	c.sw	a3,4(s1)
   106f0:	854e                	c.mv	a0,s3
   106f2:	c398                	c.sw	a4,0(a5)
   106f4:	2255                	c.jal	10898 <__malloc_unlock>
   106f6:	00840513          	addi	a0,s0,8
   106fa:	b385                	c.j	1045a <_malloc_r+0x190>
   106fc:	0067d713          	srli	a4,a5,0x6
   10700:	03970613          	addi	a2,a4,57
   10704:	060e                	c.slli	a2,0x3
   10706:	03870693          	addi	a3,a4,56
   1070a:	b70d                	c.j	1062c <_malloc_r+0x362>
   1070c:	05c78593          	addi	a1,a5,92
   10710:	05b78813          	addi	a6,a5,91
   10714:	00359613          	slli	a2,a1,0x3
   10718:	b1a1                	c.j	10360 <_malloc_r+0x96>
   1071a:	00832783          	lw	a5,8(t1) # 101d2 <frame_dummy+0x18>
   1071e:	15fd                	c.addi	a1,-1
   10720:	16679863          	bne	a5,t1,10890 <_malloc_r+0x5c6>
   10724:	0035f793          	andi	a5,a1,3
   10728:	1361                	c.addi	t1,-8
   1072a:	fbe5                	c.bnez	a5,1071a <_malloc_r+0x450>
   1072c:	00492703          	lw	a4,4(s2)
   10730:	fff64793          	xori	a5,a2,-1
   10734:	8ff9                	c.and	a5,a4
   10736:	00f92223          	sw	a5,4(s2)
   1073a:	0606                	c.slli	a2,0x1
   1073c:	d2c7ede3          	bltu	a5,a2,10476 <_malloc_r+0x1ac>
   10740:	d2060be3          	beq	a2,zero,10476 <_malloc_r+0x1ac>
   10744:	00f67733          	and	a4,a2,a5
   10748:	e711                	c.bnez	a4,10754 <_malloc_r+0x48a>
   1074a:	0606                	c.slli	a2,0x1
   1074c:	00f67733          	and	a4,a2,a5
   10750:	0e11                	c.addi	t3,4
   10752:	df65                	c.beqz	a4,1074a <_malloc_r+0x480>
   10754:	85f2                	c.mv	a1,t3
   10756:	b97d                	c.j	10414 <_malloc_r+0x14a>
   10758:	00840593          	addi	a1,s0,8
   1075c:	854e                	c.mv	a0,s3
   1075e:	70d000ef          	jal	ra,1166a <_free_r>
   10762:	000c2583          	lw	a1,0(s8)
   10766:	00892b83          	lw	s7,8(s2)
   1076a:	b509                	c.j	1056c <_malloc_r+0x2a2>
   1076c:	0ac1                	c.addi	s5,16
   1076e:	b3a9                	c.j	104b8 <_malloc_r+0x1ee>
   10770:	8689                	c.srai	a3,0x2
   10772:	4785                	c.li	a5,1
   10774:	00d797b3          	sll	a5,a5,a3
   10778:	8d5d                	c.or	a0,a5
   1077a:	00a92223          	sw	a0,4(s2)
   1077e:	b5e9                	c.j	10648 <_malloc_r+0x37e>
   10780:	015b85b3          	add	a1,s7,s5
   10784:	40b005b3          	sub	a1,zero,a1
   10788:	05d2                	c.slli	a1,0x14
   1078a:	0145da13          	srli	s4,a1,0x14
   1078e:	85d2                	c.mv	a1,s4
   10790:	854e                	c.mv	a0,s3
   10792:	353000ef          	jal	ra,112e4 <_sbrk_r>
   10796:	57fd                	c.li	a5,-1
   10798:	d8f517e3          	bne	a0,a5,10526 <_malloc_r+0x25c>
   1079c:	4a01                	c.li	s4,0
   1079e:	bb41                	c.j	1052e <_malloc_r+0x264>
   107a0:	4c22                	c.lwsp	s8,8(sp)
   107a2:	4785                	c.li	a5,1
   107a4:	00fba223          	sw	a5,4(s7)
   107a8:	854e                	c.mv	a0,s3
   107aa:	20fd                	c.jal	10898 <__malloc_unlock>
   107ac:	4a62                	c.lwsp	s4,24(sp)
   107ae:	4ad2                	c.lwsp	s5,20(sp)
   107b0:	4b42                	c.lwsp	s6,16(sp)
   107b2:	4bb2                	c.lwsp	s7,12(sp)
   107b4:	4c92                	c.lwsp	s9,4(sp)
   107b6:	b14d                	c.j	10458 <_malloc_r+0x18e>
   107b8:	05400693          	addi	a3,zero,84
   107bc:	06e6e363          	bltu	a3,a4,10822 <_malloc_r+0x558>
   107c0:	00c7d713          	srli	a4,a5,0xc
   107c4:	06f70613          	addi	a2,a4,111
   107c8:	060e                	c.slli	a2,0x3
   107ca:	06e70693          	addi	a3,a4,110
   107ce:	bdb9                	c.j	1062c <_malloc_r+0x362>
   107d0:	15400713          	addi	a4,zero,340
   107d4:	06f76363          	bltu	a4,a5,1083a <_malloc_r+0x570>
   107d8:	00f4d793          	srli	a5,s1,0xf
   107dc:	07878593          	addi	a1,a5,120
   107e0:	07778813          	addi	a6,a5,119
   107e4:	00359613          	slli	a2,a1,0x3
   107e8:	bea5                	c.j	10360 <_malloc_r+0x96>
   107ea:	f5418c13          	addi	s8,gp,-172 # 1e764 <__malloc_current_mallinfo>
   107ee:	000c2703          	lw	a4,0(s8)
   107f2:	9756                	c.add	a4,s5
   107f4:	00ec2023          	sw	a4,0(s8)
   107f8:	b1ed                	c.j	104e2 <_malloc_r+0x218>
   107fa:	00892403          	lw	s0,8(s2)
   107fe:	405c                	c.lw	a5,4(s0)
   10800:	b345                	c.j	105a0 <_malloc_r+0x2d6>
   10802:	01451793          	slli	a5,a0,0x14
   10806:	cc079ee3          	bne	a5,zero,104e2 <_malloc_r+0x218>
   1080a:	00892b83          	lw	s7,8(s2)
   1080e:	015b07b3          	add	a5,s6,s5
   10812:	0017e793          	ori	a5,a5,1
   10816:	00fba223          	sw	a5,4(s7)
   1081a:	bb99                	c.j	10570 <_malloc_r+0x2a6>
   1081c:	f171a623          	sw	s7,-244(gp) # 1e71c <__malloc_sbrk_base>
   10820:	b9d9                	c.j	104f6 <_malloc_r+0x22c>
   10822:	15400693          	addi	a3,zero,340
   10826:	02e6ed63          	bltu	a3,a4,10860 <_malloc_r+0x596>
   1082a:	00f7d713          	srli	a4,a5,0xf
   1082e:	07870613          	addi	a2,a4,120
   10832:	060e                	c.slli	a2,0x3
   10834:	07770693          	addi	a3,a4,119
   10838:	bbd5                	c.j	1062c <_malloc_r+0x362>
   1083a:	55400713          	addi	a4,zero,1364
   1083e:	02f76d63          	bltu	a4,a5,10878 <_malloc_r+0x5ae>
   10842:	0124d793          	srli	a5,s1,0x12
   10846:	07d78593          	addi	a1,a5,125
   1084a:	07c78813          	addi	a6,a5,124
   1084e:	00359613          	slli	a2,a1,0x3
   10852:	b639                	c.j	10360 <_malloc_r+0x96>
   10854:	1ce1                	c.addi	s9,-8
   10856:	9ae6                	c.add	s5,s9
   10858:	417a8ab3          	sub	s5,s5,s7
   1085c:	4a01                	c.li	s4,0
   1085e:	b9c1                	c.j	1052e <_malloc_r+0x264>
   10860:	55400693          	addi	a3,zero,1364
   10864:	02e6e163          	bltu	a3,a4,10886 <_malloc_r+0x5bc>
   10868:	0127d713          	srli	a4,a5,0x12
   1086c:	07d70613          	addi	a2,a4,125
   10870:	060e                	c.slli	a2,0x3
   10872:	07c70693          	addi	a3,a4,124
   10876:	bb5d                	c.j	1062c <_malloc_r+0x362>
   10878:	3f800613          	addi	a2,zero,1016
   1087c:	07f00593          	addi	a1,zero,127
   10880:	07e00813          	addi	a6,zero,126
   10884:	bcf1                	c.j	10360 <_malloc_r+0x96>
   10886:	3f800613          	addi	a2,zero,1016
   1088a:	07e00693          	addi	a3,zero,126
   1088e:	bb79                	c.j	1062c <_malloc_r+0x362>
   10890:	00492783          	lw	a5,4(s2)
   10894:	b55d                	c.j	1073a <_malloc_r+0x470>

00010896 <__malloc_lock>:
   10896:	8082                	c.jr	ra

00010898 <__malloc_unlock>:
   10898:	8082                	c.jr	ra

0001089a <atoll>:
   1089a:	4629                	c.li	a2,10
   1089c:	4581                	c.li	a1,0
   1089e:	1e40106f          	jal	zero,11a82 <strtoll>

000108a2 <_atoll_r>:
   108a2:	46a9                	c.li	a3,10
   108a4:	4601                	c.li	a2,0
   108a6:	1ca0106f          	jal	zero,11a70 <_strtoll_r>

000108aa <_memalign_r>:
   108aa:	47a1                	c.li	a5,8
   108ac:	0eb7fe63          	bgeu	a5,a1,109a8 <_memalign_r+0xfe>
   108b0:	1101                	c.addi	sp,-32
   108b2:	cc22                	c.swsp	s0,24(sp)
   108b4:	c84a                	c.swsp	s2,16(sp)
   108b6:	ce06                	c.swsp	ra,28(sp)
   108b8:	ca26                	c.swsp	s1,20(sp)
   108ba:	c64e                	c.swsp	s3,12(sp)
   108bc:	47c1                	c.li	a5,16
   108be:	842e                	c.mv	s0,a1
   108c0:	892a                	c.mv	s2,a0
   108c2:	0cf5eb63          	bltu	a1,a5,10998 <_memalign_r+0xee>
   108c6:	00b60793          	addi	a5,a2,11
   108ca:	4759                	c.li	a4,22
   108cc:	49c1                	c.li	s3,16
   108ce:	0af76363          	bltu	a4,a5,10974 <_memalign_r+0xca>
   108d2:	57bd                	c.li	a5,-17
   108d4:	8f81                	c.sub	a5,s0
   108d6:	0b37e563          	bltu	a5,s3,10980 <_memalign_r+0xd6>
   108da:	0ac9e363          	bltu	s3,a2,10980 <_memalign_r+0xd6>
   108de:	01040593          	addi	a1,s0,16
   108e2:	95ce                	c.add	a1,s3
   108e4:	854a                	c.mv	a0,s2
   108e6:	32d5                	c.jal	102ca <_malloc_r>
   108e8:	84aa                	c.mv	s1,a0
   108ea:	cd51                	c.beqz	a0,10986 <_memalign_r+0xdc>
   108ec:	854a                	c.mv	a0,s2
   108ee:	c452                	c.swsp	s4,8(sp)
   108f0:	375d                	c.jal	10896 <__malloc_lock>
   108f2:	0284f7b3          	remu	a5,s1,s0
   108f6:	ff848a13          	addi	s4,s1,-8
   108fa:	cbb1                	c.beqz	a5,1094e <_memalign_r+0xa4>
   108fc:	fff40793          	addi	a5,s0,-1
   10900:	40800733          	sub	a4,zero,s0
   10904:	97a6                	c.add	a5,s1
   10906:	8ff9                	c.and	a5,a4
   10908:	17e1                	c.addi	a5,-8
   1090a:	41478733          	sub	a4,a5,s4
   1090e:	46bd                	c.li	a3,15
   10910:	0ae6cf63          	blt	a3,a4,109ce <_memalign_r+0x124>
   10914:	97a2                	c.add	a5,s0
   10916:	41478733          	sub	a4,a5,s4
   1091a:	8a3e                	c.mv	s4,a5
   1091c:	ffc4a783          	lw	a5,-4(s1)
   10920:	85a6                	c.mv	a1,s1
   10922:	854a                	c.mv	a0,s2
   10924:	9bf1                	c.andi	a5,-4
   10926:	8f99                	c.sub	a5,a4
   10928:	0017e693          	ori	a3,a5,1
   1092c:	00da2223          	sw	a3,4(s4)
   10930:	97d2                	c.add	a5,s4
   10932:	43d4                	c.lw	a3,4(a5)
   10934:	0016e693          	ori	a3,a3,1
   10938:	c3d4                	c.sw	a3,4(a5)
   1093a:	ffc4a783          	lw	a5,-4(s1)
   1093e:	8b85                	c.andi	a5,1
   10940:	8fd9                	c.or	a5,a4
   10942:	fef4ae23          	sw	a5,-4(s1)
   10946:	525000ef          	jal	ra,1166a <_free_r>
   1094a:	008a0493          	addi	s1,s4,8
   1094e:	004a2783          	lw	a5,4(s4)
   10952:	473d                	c.li	a4,15
   10954:	9bf1                	c.andi	a5,-4
   10956:	413787b3          	sub	a5,a5,s3
   1095a:	04f74963          	blt	a4,a5,109ac <_memalign_r+0x102>
   1095e:	854a                	c.mv	a0,s2
   10960:	3f25                	c.jal	10898 <__malloc_unlock>
   10962:	40f2                	c.lwsp	ra,28(sp)
   10964:	4462                	c.lwsp	s0,24(sp)
   10966:	4a22                	c.lwsp	s4,8(sp)
   10968:	4942                	c.lwsp	s2,16(sp)
   1096a:	49b2                	c.lwsp	s3,12(sp)
   1096c:	8526                	c.mv	a0,s1
   1096e:	44d2                	c.lwsp	s1,20(sp)
   10970:	6105                	c.addi16sp	sp,32
   10972:	8082                	c.jr	ra
   10974:	ff87f993          	andi	s3,a5,-8
   10978:	57bd                	c.li	a5,-17
   1097a:	8f81                	c.sub	a5,s0
   1097c:	f537ffe3          	bgeu	a5,s3,108da <_memalign_r+0x30>
   10980:	47b1                	c.li	a5,12
   10982:	00f92023          	sw	a5,0(s2)
   10986:	40f2                	c.lwsp	ra,28(sp)
   10988:	4462                	c.lwsp	s0,24(sp)
   1098a:	4481                	c.li	s1,0
   1098c:	4942                	c.lwsp	s2,16(sp)
   1098e:	49b2                	c.lwsp	s3,12(sp)
   10990:	8526                	c.mv	a0,s1
   10992:	44d2                	c.lwsp	s1,20(sp)
   10994:	6105                	c.addi16sp	sp,32
   10996:	8082                	c.jr	ra
   10998:	843e                	c.mv	s0,a5
   1099a:	4759                	c.li	a4,22
   1099c:	00b60793          	addi	a5,a2,11
   109a0:	49c1                	c.li	s3,16
   109a2:	f2f778e3          	bgeu	a4,a5,108d2 <_memalign_r+0x28>
   109a6:	b7f9                	c.j	10974 <_memalign_r+0xca>
   109a8:	85b2                	c.mv	a1,a2
   109aa:	b205                	c.j	102ca <_malloc_r>
   109ac:	013a05b3          	add	a1,s4,s3
   109b0:	0017e793          	ori	a5,a5,1
   109b4:	c1dc                	c.sw	a5,4(a1)
   109b6:	004a2783          	lw	a5,4(s4)
   109ba:	05a1                	c.addi	a1,8
   109bc:	854a                	c.mv	a0,s2
   109be:	8b85                	c.andi	a5,1
   109c0:	0137e7b3          	or	a5,a5,s3
   109c4:	00fa2223          	sw	a5,4(s4)
   109c8:	4a3000ef          	jal	ra,1166a <_free_r>
   109cc:	bf49                	c.j	1095e <_memalign_r+0xb4>
   109ce:	8a3e                	c.mv	s4,a5
   109d0:	b7b1                	c.j	1091c <_memalign_r+0x72>

000109d2 <__fp_lock>:
   109d2:	4501                	c.li	a0,0
   109d4:	8082                	c.jr	ra

000109d6 <stdio_exit_handler>:
   109d6:	65d1                	c.lui	a1,0x14
   109d8:	c0818613          	addi	a2,gp,-1016 # 1e418 <__sglue>
   109dc:	de058593          	addi	a1,a1,-544 # 13de0 <_fclose_r>
   109e0:	c1818513          	addi	a0,gp,-1000 # 1e428 <_impure_data>
   109e4:	acb9                	c.j	10c42 <_fwalk_sglue>

000109e6 <cleanup_stdio>:
   109e6:	414c                	c.lw	a1,4(a0)
   109e8:	1141                	c.addi	sp,-16
   109ea:	c422                	c.swsp	s0,8(sp)
   109ec:	c606                	c.swsp	ra,12(sp)
   109ee:	f7c18793          	addi	a5,gp,-132 # 1e78c <__sf>
   109f2:	842a                	c.mv	s0,a0
   109f4:	00f58463          	beq	a1,a5,109fc <cleanup_stdio+0x16>
   109f8:	3e8030ef          	jal	ra,13de0 <_fclose_r>
   109fc:	440c                	c.lw	a1,8(s0)
   109fe:	fe418793          	addi	a5,gp,-28 # 1e7f4 <__sf+0x68>
   10a02:	00f58563          	beq	a1,a5,10a0c <cleanup_stdio+0x26>
   10a06:	8522                	c.mv	a0,s0
   10a08:	3d8030ef          	jal	ra,13de0 <_fclose_r>
   10a0c:	444c                	c.lw	a1,12(s0)
   10a0e:	04c18793          	addi	a5,gp,76 # 1e85c <__global_pointer$+0x4c>
   10a12:	00f58863          	beq	a1,a5,10a22 <cleanup_stdio+0x3c>
   10a16:	8522                	c.mv	a0,s0
   10a18:	4422                	c.lwsp	s0,8(sp)
   10a1a:	40b2                	c.lwsp	ra,12(sp)
   10a1c:	0141                	c.addi	sp,16
   10a1e:	3c20306f          	jal	zero,13de0 <_fclose_r>
   10a22:	40b2                	c.lwsp	ra,12(sp)
   10a24:	4422                	c.lwsp	s0,8(sp)
   10a26:	0141                	c.addi	sp,16
   10a28:	8082                	c.jr	ra

00010a2a <__fp_unlock>:
   10a2a:	4501                	c.li	a0,0
   10a2c:	8082                	c.jr	ra

00010a2e <global_stdio_init.part.0>:
   10a2e:	1101                	c.addi	sp,-32
   10a30:	cc22                	c.swsp	s0,24(sp)
   10a32:	67c5                	c.lui	a5,0x11
   10a34:	f7c18413          	addi	s0,gp,-132 # 1e78c <__sf>
   10a38:	ce06                	c.swsp	ra,28(sp)
   10a3a:	ca26                	c.swsp	s1,20(sp)
   10a3c:	c84a                	c.swsp	s2,16(sp)
   10a3e:	c64e                	c.swsp	s3,12(sp)
   10a40:	c452                	c.swsp	s4,8(sp)
   10a42:	4711                	c.li	a4,4
   10a44:	9d678793          	addi	a5,a5,-1578 # 109d6 <stdio_exit_handler>
   10a48:	4621                	c.li	a2,8
   10a4a:	4581                	c.li	a1,0
   10a4c:	fd818513          	addi	a0,gp,-40 # 1e7e8 <__sf+0x5c>
   10a50:	f2f1a223          	sw	a5,-220(gp) # 1e734 <__stdio_exit_handler>
   10a54:	c458                	c.sw	a4,12(s0)
   10a56:	00042023          	sw	zero,0(s0)
   10a5a:	00042223          	sw	zero,4(s0)
   10a5e:	00042423          	sw	zero,8(s0)
   10a62:	06042223          	sw	zero,100(s0)
   10a66:	00042823          	sw	zero,16(s0)
   10a6a:	00042a23          	sw	zero,20(s0)
   10a6e:	00042c23          	sw	zero,24(s0)
   10a72:	14f000ef          	jal	ra,113c0 <memset>
   10a76:	67c1                	c.lui	a5,0x10
   10a78:	6a45                	c.lui	s4,0x11
   10a7a:	69c5                	c.lui	s3,0x11
   10a7c:	6945                	c.lui	s2,0x11
   10a7e:	64c5                	c.lui	s1,0x11
   10a80:	e12a0a13          	addi	s4,s4,-494 # 10e12 <__sread>
   10a84:	e4c98993          	addi	s3,s3,-436 # 10e4c <__swrite>
   10a88:	e9c90913          	addi	s2,s2,-356 # 10e9c <__sseek>
   10a8c:	ed848493          	addi	s1,s1,-296 # 10ed8 <__sclose>
   10a90:	07a5                	c.addi	a5,9 # 10009 <exit-0xab>
   10a92:	4621                	c.li	a2,8
   10a94:	4581                	c.li	a1,0
   10a96:	04018513          	addi	a0,gp,64 # 1e850 <__global_pointer$+0x40>
   10a9a:	d87c                	c.sw	a5,116(s0)
   10a9c:	03442023          	sw	s4,32(s0)
   10aa0:	03342223          	sw	s3,36(s0)
   10aa4:	03242423          	sw	s2,40(s0)
   10aa8:	d444                	c.sw	s1,44(s0)
   10aaa:	cc40                	c.sw	s0,28(s0)
   10aac:	06042423          	sw	zero,104(s0)
   10ab0:	06042623          	sw	zero,108(s0)
   10ab4:	06042823          	sw	zero,112(s0)
   10ab8:	0c042623          	sw	zero,204(s0)
   10abc:	06042c23          	sw	zero,120(s0)
   10ac0:	06042e23          	sw	zero,124(s0)
   10ac4:	08042023          	sw	zero,128(s0)
   10ac8:	0f9000ef          	jal	ra,113c0 <memset>
   10acc:	000207b7          	lui	a5,0x20
   10ad0:	07c9                	c.addi	a5,18 # 20012 <__BSS_END__+0x15be>
   10ad2:	fe418713          	addi	a4,gp,-28 # 1e7f4 <__sf+0x68>
   10ad6:	0a818513          	addi	a0,gp,168 # 1e8b8 <__global_pointer$+0xa8>
   10ada:	4621                	c.li	a2,8
   10adc:	4581                	c.li	a1,0
   10ade:	09442423          	sw	s4,136(s0)
   10ae2:	09342623          	sw	s3,140(s0)
   10ae6:	09242823          	sw	s2,144(s0)
   10aea:	08942a23          	sw	s1,148(s0)
   10aee:	0cf42e23          	sw	a5,220(s0)
   10af2:	0c042823          	sw	zero,208(s0)
   10af6:	0c042a23          	sw	zero,212(s0)
   10afa:	0c042c23          	sw	zero,216(s0)
   10afe:	12042a23          	sw	zero,308(s0)
   10b02:	0e042023          	sw	zero,224(s0)
   10b06:	0e042223          	sw	zero,228(s0)
   10b0a:	0e042423          	sw	zero,232(s0)
   10b0e:	08e42223          	sw	a4,132(s0)
   10b12:	0af000ef          	jal	ra,113c0 <memset>
   10b16:	04c18793          	addi	a5,gp,76 # 1e85c <__global_pointer$+0x4c>
   10b1a:	0f442823          	sw	s4,240(s0)
   10b1e:	0f342a23          	sw	s3,244(s0)
   10b22:	0f242c23          	sw	s2,248(s0)
   10b26:	0e942e23          	sw	s1,252(s0)
   10b2a:	40f2                	c.lwsp	ra,28(sp)
   10b2c:	0ef42623          	sw	a5,236(s0)
   10b30:	4462                	c.lwsp	s0,24(sp)
   10b32:	44d2                	c.lwsp	s1,20(sp)
   10b34:	4942                	c.lwsp	s2,16(sp)
   10b36:	49b2                	c.lwsp	s3,12(sp)
   10b38:	4a22                	c.lwsp	s4,8(sp)
   10b3a:	6105                	c.addi16sp	sp,32
   10b3c:	8082                	c.jr	ra

00010b3e <__sfp>:
   10b3e:	f241a783          	lw	a5,-220(gp) # 1e734 <__stdio_exit_handler>
   10b42:	1101                	c.addi	sp,-32
   10b44:	c64e                	c.swsp	s3,12(sp)
   10b46:	ce06                	c.swsp	ra,28(sp)
   10b48:	cc22                	c.swsp	s0,24(sp)
   10b4a:	ca26                	c.swsp	s1,20(sp)
   10b4c:	c84a                	c.swsp	s2,16(sp)
   10b4e:	89aa                	c.mv	s3,a0
   10b50:	c7d5                	c.beqz	a5,10bfc <__sfp+0xbe>
   10b52:	c0818913          	addi	s2,gp,-1016 # 1e418 <__sglue>
   10b56:	54fd                	c.li	s1,-1
   10b58:	00492783          	lw	a5,4(s2)
   10b5c:	00892403          	lw	s0,8(s2)
   10b60:	17fd                	c.addi	a5,-1
   10b62:	0007d763          	bge	a5,zero,10b70 <__sfp+0x32>
   10b66:	a085                	c.j	10bc6 <__sfp+0x88>
   10b68:	06840413          	addi	s0,s0,104
   10b6c:	04978d63          	beq	a5,s1,10bc6 <__sfp+0x88>
   10b70:	00c41703          	lh	a4,12(s0)
   10b74:	17fd                	c.addi	a5,-1
   10b76:	fb6d                	c.bnez	a4,10b68 <__sfp+0x2a>
   10b78:	77c1                	c.lui	a5,0xffff0
   10b7a:	0785                	c.addi	a5,1 # ffff0001 <__BSS_END__+0xfffd15ad>
   10b7c:	06042223          	sw	zero,100(s0)
   10b80:	00042023          	sw	zero,0(s0)
   10b84:	00042423          	sw	zero,8(s0)
   10b88:	00042223          	sw	zero,4(s0)
   10b8c:	00042823          	sw	zero,16(s0)
   10b90:	00042a23          	sw	zero,20(s0)
   10b94:	00042c23          	sw	zero,24(s0)
   10b98:	c45c                	c.sw	a5,12(s0)
   10b9a:	4621                	c.li	a2,8
   10b9c:	4581                	c.li	a1,0
   10b9e:	05c40513          	addi	a0,s0,92
   10ba2:	01f000ef          	jal	ra,113c0 <memset>
   10ba6:	02042823          	sw	zero,48(s0)
   10baa:	02042a23          	sw	zero,52(s0)
   10bae:	04042223          	sw	zero,68(s0)
   10bb2:	04042423          	sw	zero,72(s0)
   10bb6:	40f2                	c.lwsp	ra,28(sp)
   10bb8:	8522                	c.mv	a0,s0
   10bba:	4462                	c.lwsp	s0,24(sp)
   10bbc:	44d2                	c.lwsp	s1,20(sp)
   10bbe:	4942                	c.lwsp	s2,16(sp)
   10bc0:	49b2                	c.lwsp	s3,12(sp)
   10bc2:	6105                	c.addi16sp	sp,32
   10bc4:	8082                	c.jr	ra
   10bc6:	00092403          	lw	s0,0(s2)
   10bca:	c019                	c.beqz	s0,10bd0 <__sfp+0x92>
   10bcc:	8922                	c.mv	s2,s0
   10bce:	b769                	c.j	10b58 <__sfp+0x1a>
   10bd0:	1ac00593          	addi	a1,zero,428
   10bd4:	854e                	c.mv	a0,s3
   10bd6:	ef4ff0ef          	jal	ra,102ca <_malloc_r>
   10bda:	842a                	c.mv	s0,a0
   10bdc:	c115                	c.beqz	a0,10c00 <__sfp+0xc2>
   10bde:	4791                	c.li	a5,4
   10be0:	0531                	c.addi	a0,12
   10be2:	00042023          	sw	zero,0(s0)
   10be6:	c05c                	c.sw	a5,4(s0)
   10be8:	c408                	c.sw	a0,8(s0)
   10bea:	1a000613          	addi	a2,zero,416
   10bee:	4581                	c.li	a1,0
   10bf0:	7d0000ef          	jal	ra,113c0 <memset>
   10bf4:	00892023          	sw	s0,0(s2)
   10bf8:	8922                	c.mv	s2,s0
   10bfa:	bfb9                	c.j	10b58 <__sfp+0x1a>
   10bfc:	3d0d                	c.jal	10a2e <global_stdio_init.part.0>
   10bfe:	bf91                	c.j	10b52 <__sfp+0x14>
   10c00:	00092023          	sw	zero,0(s2)
   10c04:	47b1                	c.li	a5,12
   10c06:	00f9a023          	sw	a5,0(s3)
   10c0a:	b775                	c.j	10bb6 <__sfp+0x78>

00010c0c <__sinit>:
   10c0c:	595c                	c.lw	a5,52(a0)
   10c0e:	c391                	c.beqz	a5,10c12 <__sinit+0x6>
   10c10:	8082                	c.jr	ra
   10c12:	67c5                	c.lui	a5,0x11
   10c14:	f241a703          	lw	a4,-220(gp) # 1e734 <__stdio_exit_handler>
   10c18:	9e678793          	addi	a5,a5,-1562 # 109e6 <cleanup_stdio>
   10c1c:	d95c                	c.sw	a5,52(a0)
   10c1e:	fb6d                	c.bnez	a4,10c10 <__sinit+0x4>
   10c20:	b539                	c.j	10a2e <global_stdio_init.part.0>

00010c22 <__sfp_lock_acquire>:
   10c22:	8082                	c.jr	ra

00010c24 <__sfp_lock_release>:
   10c24:	8082                	c.jr	ra

00010c26 <__fp_lock_all>:
   10c26:	65c5                	c.lui	a1,0x11
   10c28:	c0818613          	addi	a2,gp,-1016 # 1e418 <__sglue>
   10c2c:	9d258593          	addi	a1,a1,-1582 # 109d2 <__fp_lock>
   10c30:	4501                	c.li	a0,0
   10c32:	a801                	c.j	10c42 <_fwalk_sglue>

00010c34 <__fp_unlock_all>:
   10c34:	65c5                	c.lui	a1,0x11
   10c36:	c0818613          	addi	a2,gp,-1016 # 1e418 <__sglue>
   10c3a:	a2a58593          	addi	a1,a1,-1494 # 10a2a <__fp_unlock>
   10c3e:	4501                	c.li	a0,0
   10c40:	a009                	c.j	10c42 <_fwalk_sglue>

00010c42 <_fwalk_sglue>:
   10c42:	7179                	c.addi16sp	sp,-48
   10c44:	d04a                	c.swsp	s2,32(sp)
   10c46:	ce4e                	c.swsp	s3,28(sp)
   10c48:	cc52                	c.swsp	s4,24(sp)
   10c4a:	ca56                	c.swsp	s5,20(sp)
   10c4c:	c85a                	c.swsp	s6,16(sp)
   10c4e:	c65e                	c.swsp	s7,12(sp)
   10c50:	d606                	c.swsp	ra,44(sp)
   10c52:	d422                	c.swsp	s0,40(sp)
   10c54:	d226                	c.swsp	s1,36(sp)
   10c56:	8b2a                	c.mv	s6,a0
   10c58:	8bae                	c.mv	s7,a1
   10c5a:	8ab2                	c.mv	s5,a2
   10c5c:	4a01                	c.li	s4,0
   10c5e:	4985                	c.li	s3,1
   10c60:	597d                	c.li	s2,-1
   10c62:	004aa483          	lw	s1,4(s5)
   10c66:	008aa403          	lw	s0,8(s5)
   10c6a:	14fd                	c.addi	s1,-1
   10c6c:	0204c463          	blt	s1,zero,10c94 <_fwalk_sglue+0x52>
   10c70:	00c45783          	lhu	a5,12(s0)
   10c74:	00f9fb63          	bgeu	s3,a5,10c8a <_fwalk_sglue+0x48>
   10c78:	00e41783          	lh	a5,14(s0)
   10c7c:	85a2                	c.mv	a1,s0
   10c7e:	855a                	c.mv	a0,s6
   10c80:	01278563          	beq	a5,s2,10c8a <_fwalk_sglue+0x48>
   10c84:	9b82                	c.jalr	s7
   10c86:	00aa6a33          	or	s4,s4,a0
   10c8a:	14fd                	c.addi	s1,-1
   10c8c:	06840413          	addi	s0,s0,104
   10c90:	ff2490e3          	bne	s1,s2,10c70 <_fwalk_sglue+0x2e>
   10c94:	000aaa83          	lw	s5,0(s5)
   10c98:	fc0a95e3          	bne	s5,zero,10c62 <_fwalk_sglue+0x20>
   10c9c:	50b2                	c.lwsp	ra,44(sp)
   10c9e:	5422                	c.lwsp	s0,40(sp)
   10ca0:	5492                	c.lwsp	s1,36(sp)
   10ca2:	5902                	c.lwsp	s2,32(sp)
   10ca4:	49f2                	c.lwsp	s3,28(sp)
   10ca6:	4ad2                	c.lwsp	s5,20(sp)
   10ca8:	4b42                	c.lwsp	s6,16(sp)
   10caa:	4bb2                	c.lwsp	s7,12(sp)
   10cac:	8552                	c.mv	a0,s4
   10cae:	4a62                	c.lwsp	s4,24(sp)
   10cb0:	6145                	c.addi16sp	sp,48
   10cb2:	8082                	c.jr	ra

00010cb4 <_perror_r>:
   10cb4:	595c                	c.lw	a5,52(a0)
   10cb6:	7179                	c.addi16sp	sp,-48
   10cb8:	d422                	c.swsp	s0,40(sp)
   10cba:	d04a                	c.swsp	s2,32(sp)
   10cbc:	ce4e                	c.swsp	s3,28(sp)
   10cbe:	d606                	c.swsp	ra,44(sp)
   10cc0:	d226                	c.swsp	s1,36(sp)
   10cc2:	00c52983          	lw	s3,12(a0)
   10cc6:	892a                	c.mv	s2,a0
   10cc8:	842e                	c.mv	s0,a1
   10cca:	0e078463          	beq	a5,zero,10db2 <_perror_r+0xfe>
   10cce:	85ce                	c.mv	a1,s3
   10cd0:	854a                	c.mv	a0,s2
   10cd2:	354030ef          	jal	ra,14026 <_fflush_r>
   10cd6:	c401                	c.beqz	s0,10cde <_perror_r+0x2a>
   10cd8:	00044783          	lbu	a5,0(s0)
   10cdc:	e3c1                	c.bnez	a5,10d5c <_perror_r+0xa8>
   10cde:	00092583          	lw	a1,0(s2)
   10ce2:	0074                	c.addi4spn	a3,sp,12
   10ce4:	4605                	c.li	a2,1
   10ce6:	854a                	c.mv	a0,s2
   10ce8:	2add                	c.jal	10ede <_strerror_r>
   10cea:	84aa                	c.mv	s1,a0
   10cec:	c11d                	c.beqz	a0,10d12 <_perror_r+0x5e>
   10cee:	77a000ef          	jal	ra,11468 <strlen>
   10cf2:	842a                	c.mv	s0,a0
   10cf4:	e501                	c.bnez	a0,10cfc <_perror_r+0x48>
   10cf6:	a831                	c.j	10d12 <_perror_r+0x5e>
   10cf8:	94aa                	c.add	s1,a0
   10cfa:	cc01                	c.beqz	s0,10d12 <_perror_r+0x5e>
   10cfc:	854e                	c.mv	a0,s3
   10cfe:	3aa030ef          	jal	ra,140a8 <fileno>
   10d02:	85aa                	c.mv	a1,a0
   10d04:	86a2                	c.mv	a3,s0
   10d06:	8626                	c.mv	a2,s1
   10d08:	854a                	c.mv	a0,s2
   10d0a:	2d01                	c.jal	1131a <_write_r>
   10d0c:	8c09                	c.sub	s0,a0
   10d0e:	fe0555e3          	bge	a0,zero,10cf8 <_perror_r+0x44>
   10d12:	64f5                	c.lui	s1,0x1d
   10d14:	c1048513          	addi	a0,s1,-1008 # 1cc10 <__extenddftf2+0x17a>
   10d18:	750000ef          	jal	ra,11468 <strlen>
   10d1c:	842a                	c.mv	s0,a0
   10d1e:	c10d                	c.beqz	a0,10d40 <_perror_r+0x8c>
   10d20:	c1048493          	addi	s1,s1,-1008
   10d24:	a019                	c.j	10d2a <_perror_r+0x76>
   10d26:	94aa                	c.add	s1,a0
   10d28:	cc01                	c.beqz	s0,10d40 <_perror_r+0x8c>
   10d2a:	854e                	c.mv	a0,s3
   10d2c:	37c030ef          	jal	ra,140a8 <fileno>
   10d30:	85aa                	c.mv	a1,a0
   10d32:	86a2                	c.mv	a3,s0
   10d34:	8626                	c.mv	a2,s1
   10d36:	854a                	c.mv	a0,s2
   10d38:	23cd                	c.jal	1131a <_write_r>
   10d3a:	8c09                	c.sub	s0,a0
   10d3c:	fe0555e3          	bge	a0,zero,10d26 <_perror_r+0x72>
   10d40:	00c9d783          	lhu	a5,12(s3)
   10d44:	777d                	c.lui	a4,0xfffff
   10d46:	50b2                	c.lwsp	ra,44(sp)
   10d48:	5422                	c.lwsp	s0,40(sp)
   10d4a:	177d                	c.addi	a4,-1 # ffffefff <__BSS_END__+0xfffe05ab>
   10d4c:	8ff9                	c.and	a5,a4
   10d4e:	00f99623          	sh	a5,12(s3)
   10d52:	5492                	c.lwsp	s1,36(sp)
   10d54:	5902                	c.lwsp	s2,32(sp)
   10d56:	49f2                	c.lwsp	s3,28(sp)
   10d58:	6145                	c.addi16sp	sp,48
   10d5a:	8082                	c.jr	ra
   10d5c:	8522                	c.mv	a0,s0
   10d5e:	70a000ef          	jal	ra,11468 <strlen>
   10d62:	84aa                	c.mv	s1,a0
   10d64:	e501                	c.bnez	a0,10d6c <_perror_r+0xb8>
   10d66:	a831                	c.j	10d82 <_perror_r+0xce>
   10d68:	942a                	c.add	s0,a0
   10d6a:	cc81                	c.beqz	s1,10d82 <_perror_r+0xce>
   10d6c:	854e                	c.mv	a0,s3
   10d6e:	33a030ef          	jal	ra,140a8 <fileno>
   10d72:	85aa                	c.mv	a1,a0
   10d74:	86a6                	c.mv	a3,s1
   10d76:	8622                	c.mv	a2,s0
   10d78:	854a                	c.mv	a0,s2
   10d7a:	2345                	c.jal	1131a <_write_r>
   10d7c:	8c89                	c.sub	s1,a0
   10d7e:	fe0555e3          	bge	a0,zero,10d68 <_perror_r+0xb4>
   10d82:	64f5                	c.lui	s1,0x1d
   10d84:	c1448513          	addi	a0,s1,-1004 # 1cc14 <__extenddftf2+0x17e>
   10d88:	6e0000ef          	jal	ra,11468 <strlen>
   10d8c:	842a                	c.mv	s0,a0
   10d8e:	d921                	c.beqz	a0,10cde <_perror_r+0x2a>
   10d90:	c1448493          	addi	s1,s1,-1004
   10d94:	a019                	c.j	10d9a <_perror_r+0xe6>
   10d96:	94aa                	c.add	s1,a0
   10d98:	d039                	c.beqz	s0,10cde <_perror_r+0x2a>
   10d9a:	854e                	c.mv	a0,s3
   10d9c:	30c030ef          	jal	ra,140a8 <fileno>
   10da0:	85aa                	c.mv	a1,a0
   10da2:	86a2                	c.mv	a3,s0
   10da4:	8626                	c.mv	a2,s1
   10da6:	854a                	c.mv	a0,s2
   10da8:	2b8d                	c.jal	1131a <_write_r>
   10daa:	8c09                	c.sub	s0,a0
   10dac:	fe0555e3          	bge	a0,zero,10d96 <_perror_r+0xe2>
   10db0:	b73d                	c.j	10cde <_perror_r+0x2a>
   10db2:	3da9                	c.jal	10c0c <__sinit>
   10db4:	bf29                	c.j	10cce <_perror_r+0x1a>

00010db6 <perror>:
   10db6:	85aa                	c.mv	a1,a0
   10db8:	f141a503          	lw	a0,-236(gp) # 1e724 <_impure_ptr>
   10dbc:	bde5                	c.j	10cb4 <_perror_r>

00010dbe <_printf_r>:
   10dbe:	7139                	c.addi16sp	sp,-64
   10dc0:	8e2e                	c.mv	t3,a1
   10dc2:	450c                	c.lw	a1,8(a0)
   10dc4:	02810313          	addi	t1,sp,40
   10dc8:	d432                	c.swsp	a2,40(sp)
   10dca:	d636                	c.swsp	a3,44(sp)
   10dcc:	8672                	c.mv	a2,t3
   10dce:	869a                	c.mv	a3,t1
   10dd0:	ce06                	c.swsp	ra,28(sp)
   10dd2:	d83a                	c.swsp	a4,48(sp)
   10dd4:	da3e                	c.swsp	a5,52(sp)
   10dd6:	dc42                	c.swsp	a6,56(sp)
   10dd8:	de46                	c.swsp	a7,60(sp)
   10dda:	c61a                	c.swsp	t1,12(sp)
   10ddc:	4b7000ef          	jal	ra,11a92 <_vfprintf_r>
   10de0:	40f2                	c.lwsp	ra,28(sp)
   10de2:	6121                	c.addi16sp	sp,64
   10de4:	8082                	c.jr	ra

00010de6 <printf>:
   10de6:	f141a303          	lw	t1,-236(gp) # 1e724 <_impure_ptr>
   10dea:	7139                	c.addi16sp	sp,-64
   10dec:	d432                	c.swsp	a2,40(sp)
   10dee:	d636                	c.swsp	a3,44(sp)
   10df0:	d22e                	c.swsp	a1,36(sp)
   10df2:	d83a                	c.swsp	a4,48(sp)
   10df4:	da3e                	c.swsp	a5,52(sp)
   10df6:	dc42                	c.swsp	a6,56(sp)
   10df8:	de46                	c.swsp	a7,60(sp)
   10dfa:	00832583          	lw	a1,8(t1)
   10dfe:	1054                	c.addi4spn	a3,sp,36
   10e00:	862a                	c.mv	a2,a0
   10e02:	851a                	c.mv	a0,t1
   10e04:	ce06                	c.swsp	ra,28(sp)
   10e06:	c636                	c.swsp	a3,12(sp)
   10e08:	48b000ef          	jal	ra,11a92 <_vfprintf_r>
   10e0c:	40f2                	c.lwsp	ra,28(sp)
   10e0e:	6121                	c.addi16sp	sp,64
   10e10:	8082                	c.jr	ra

00010e12 <__sread>:
   10e12:	1141                	c.addi	sp,-16
   10e14:	c422                	c.swsp	s0,8(sp)
   10e16:	842e                	c.mv	s0,a1
   10e18:	00e59583          	lh	a1,14(a1)
   10e1c:	c606                	c.swsp	ra,12(sp)
   10e1e:	2169                	c.jal	112a8 <_read_r>
   10e20:	00054963          	blt	a0,zero,10e32 <__sread+0x20>
   10e24:	483c                	c.lw	a5,80(s0)
   10e26:	40b2                	c.lwsp	ra,12(sp)
   10e28:	97aa                	c.add	a5,a0
   10e2a:	c83c                	c.sw	a5,80(s0)
   10e2c:	4422                	c.lwsp	s0,8(sp)
   10e2e:	0141                	c.addi	sp,16
   10e30:	8082                	c.jr	ra
   10e32:	00c45783          	lhu	a5,12(s0)
   10e36:	777d                	c.lui	a4,0xfffff
   10e38:	177d                	c.addi	a4,-1 # ffffefff <__BSS_END__+0xfffe05ab>
   10e3a:	8ff9                	c.and	a5,a4
   10e3c:	40b2                	c.lwsp	ra,12(sp)
   10e3e:	00f41623          	sh	a5,12(s0)
   10e42:	4422                	c.lwsp	s0,8(sp)
   10e44:	0141                	c.addi	sp,16
   10e46:	8082                	c.jr	ra

00010e48 <__seofread>:
   10e48:	4501                	c.li	a0,0
   10e4a:	8082                	c.jr	ra

00010e4c <__swrite>:
   10e4c:	00c59783          	lh	a5,12(a1)
   10e50:	1101                	c.addi	sp,-32
   10e52:	cc22                	c.swsp	s0,24(sp)
   10e54:	ca26                	c.swsp	s1,20(sp)
   10e56:	c84a                	c.swsp	s2,16(sp)
   10e58:	c64e                	c.swsp	s3,12(sp)
   10e5a:	ce06                	c.swsp	ra,28(sp)
   10e5c:	1007f713          	andi	a4,a5,256
   10e60:	842e                	c.mv	s0,a1
   10e62:	8932                	c.mv	s2,a2
   10e64:	89b6                	c.mv	s3,a3
   10e66:	84aa                	c.mv	s1,a0
   10e68:	e315                	c.bnez	a4,10e8c <__swrite+0x40>
   10e6a:	777d                	c.lui	a4,0xfffff
   10e6c:	177d                	c.addi	a4,-1 # ffffefff <__BSS_END__+0xfffe05ab>
   10e6e:	8ff9                	c.and	a5,a4
   10e70:	00e41583          	lh	a1,14(s0)
   10e74:	00f41623          	sh	a5,12(s0)
   10e78:	4462                	c.lwsp	s0,24(sp)
   10e7a:	40f2                	c.lwsp	ra,28(sp)
   10e7c:	86ce                	c.mv	a3,s3
   10e7e:	864a                	c.mv	a2,s2
   10e80:	49b2                	c.lwsp	s3,12(sp)
   10e82:	4942                	c.lwsp	s2,16(sp)
   10e84:	8526                	c.mv	a0,s1
   10e86:	44d2                	c.lwsp	s1,20(sp)
   10e88:	6105                	c.addi16sp	sp,32
   10e8a:	a941                	c.j	1131a <_write_r>
   10e8c:	00e59583          	lh	a1,14(a1)
   10e90:	4689                	c.li	a3,2
   10e92:	4601                	c.li	a2,0
   10e94:	2ee1                	c.jal	1126c <_lseek_r>
   10e96:	00c41783          	lh	a5,12(s0)
   10e9a:	bfc1                	c.j	10e6a <__swrite+0x1e>

00010e9c <__sseek>:
   10e9c:	1141                	c.addi	sp,-16
   10e9e:	c422                	c.swsp	s0,8(sp)
   10ea0:	842e                	c.mv	s0,a1
   10ea2:	00e59583          	lh	a1,14(a1)
   10ea6:	c606                	c.swsp	ra,12(sp)
   10ea8:	26d1                	c.jal	1126c <_lseek_r>
   10eaa:	577d                	c.li	a4,-1
   10eac:	00c41783          	lh	a5,12(s0)
   10eb0:	00e50b63          	beq	a0,a4,10ec6 <__sseek+0x2a>
   10eb4:	6705                	c.lui	a4,0x1
   10eb6:	8fd9                	c.or	a5,a4
   10eb8:	40b2                	c.lwsp	ra,12(sp)
   10eba:	c828                	c.sw	a0,80(s0)
   10ebc:	00f41623          	sh	a5,12(s0)
   10ec0:	4422                	c.lwsp	s0,8(sp)
   10ec2:	0141                	c.addi	sp,16
   10ec4:	8082                	c.jr	ra
   10ec6:	777d                	c.lui	a4,0xfffff
   10ec8:	177d                	c.addi	a4,-1 # ffffefff <__BSS_END__+0xfffe05ab>
   10eca:	8ff9                	c.and	a5,a4
   10ecc:	40b2                	c.lwsp	ra,12(sp)
   10ece:	00f41623          	sh	a5,12(s0)
   10ed2:	4422                	c.lwsp	s0,8(sp)
   10ed4:	0141                	c.addi	sp,16
   10ed6:	8082                	c.jr	ra

00010ed8 <__sclose>:
   10ed8:	00e59583          	lh	a1,14(a1)
   10edc:	acf9                	c.j	111ba <_close_r>

00010ede <_strerror_r>:
   10ede:	87ae                	c.mv	a5,a1
   10ee0:	08e00713          	addi	a4,zero,142
   10ee4:	85b2                	c.mv	a1,a2
   10ee6:	00f76a63          	bltu	a4,a5,10efa <_strerror_r+0x1c>
   10eea:	6875                	c.lui	a6,0x1d
   10eec:	56880813          	addi	a6,a6,1384 # 1d568 <__clz_tab+0x100>
   10ef0:	00279713          	slli	a4,a5,0x2
   10ef4:	9742                	c.add	a4,a6
   10ef6:	4318                	c.lw	a4,0(a4)
   10ef8:	8702                	c.jr	a4
   10efa:	1141                	c.addi	sp,-16
   10efc:	c606                	c.swsp	ra,12(sp)
   10efe:	28068e63          	beq	a3,zero,1119a <_strerror_r+0x2bc>
   10f02:	8636                	c.mv	a2,a3
   10f04:	853e                	c.mv	a0,a5
   10f06:	2c45                	c.jal	111b6 <_user_strerror>
   10f08:	28050563          	beq	a0,zero,11192 <_strerror_r+0x2b4>
   10f0c:	40b2                	c.lwsp	ra,12(sp)
   10f0e:	0141                	c.addi	sp,16
   10f10:	8082                	c.jr	ra
   10f12:	6575                	c.lui	a0,0x1d
   10f14:	28c50513          	addi	a0,a0,652 # 1d28c <__extenddftf2+0x7f6>
   10f18:	8082                	c.jr	ra
   10f1a:	6575                	c.lui	a0,0x1d
   10f1c:	27450513          	addi	a0,a0,628 # 1d274 <__extenddftf2+0x7de>
   10f20:	8082                	c.jr	ra
   10f22:	6575                	c.lui	a0,0x1d
   10f24:	22c50513          	addi	a0,a0,556 # 1d22c <__extenddftf2+0x796>
   10f28:	8082                	c.jr	ra
   10f2a:	6575                	c.lui	a0,0x1d
   10f2c:	24450513          	addi	a0,a0,580 # 1d244 <__extenddftf2+0x7ae>
   10f30:	8082                	c.jr	ra
   10f32:	6575                	c.lui	a0,0x1d
   10f34:	e3050513          	addi	a0,a0,-464 # 1ce30 <__extenddftf2+0x39a>
   10f38:	8082                	c.jr	ra
   10f3a:	6575                	c.lui	a0,0x1d
   10f3c:	1f050513          	addi	a0,a0,496 # 1d1f0 <__extenddftf2+0x75a>
   10f40:	8082                	c.jr	ra
   10f42:	6575                	c.lui	a0,0x1d
   10f44:	06450513          	addi	a0,a0,100 # 1d064 <__extenddftf2+0x5ce>
   10f48:	8082                	c.jr	ra
   10f4a:	6575                	c.lui	a0,0x1d
   10f4c:	2ec50513          	addi	a0,a0,748 # 1d2ec <__extenddftf2+0x856>
   10f50:	8082                	c.jr	ra
   10f52:	6575                	c.lui	a0,0x1d
   10f54:	cf850513          	addi	a0,a0,-776 # 1ccf8 <__extenddftf2+0x262>
   10f58:	8082                	c.jr	ra
   10f5a:	6575                	c.lui	a0,0x1d
   10f5c:	cc050513          	addi	a0,a0,-832 # 1ccc0 <__extenddftf2+0x22a>
   10f60:	8082                	c.jr	ra
   10f62:	6575                	c.lui	a0,0x1d
   10f64:	26050513          	addi	a0,a0,608 # 1d260 <__extenddftf2+0x7ca>
   10f68:	8082                	c.jr	ra
   10f6a:	6575                	c.lui	a0,0x1d
   10f6c:	2c450513          	addi	a0,a0,708 # 1d2c4 <__extenddftf2+0x82e>
   10f70:	8082                	c.jr	ra
   10f72:	6575                	c.lui	a0,0x1d
   10f74:	fbc50513          	addi	a0,a0,-68 # 1cfbc <__extenddftf2+0x526>
   10f78:	8082                	c.jr	ra
   10f7a:	6575                	c.lui	a0,0x1d
   10f7c:	ef450513          	addi	a0,a0,-268 # 1cef4 <__extenddftf2+0x45e>
   10f80:	8082                	c.jr	ra
   10f82:	6575                	c.lui	a0,0x1d
   10f84:	dc850513          	addi	a0,a0,-568 # 1cdc8 <__extenddftf2+0x332>
   10f88:	8082                	c.jr	ra
   10f8a:	6575                	c.lui	a0,0x1d
   10f8c:	ec850513          	addi	a0,a0,-312 # 1cec8 <__extenddftf2+0x432>
   10f90:	8082                	c.jr	ra
   10f92:	6575                	c.lui	a0,0x1d
   10f94:	db850513          	addi	a0,a0,-584 # 1cdb8 <__extenddftf2+0x322>
   10f98:	8082                	c.jr	ra
   10f9a:	6575                	c.lui	a0,0x1d
   10f9c:	30050513          	addi	a0,a0,768 # 1d300 <__extenddftf2+0x86a>
   10fa0:	8082                	c.jr	ra
   10fa2:	6575                	c.lui	a0,0x1d
   10fa4:	e0c50513          	addi	a0,a0,-500 # 1ce0c <__extenddftf2+0x376>
   10fa8:	8082                	c.jr	ra
   10faa:	6575                	c.lui	a0,0x1d
   10fac:	fe050513          	addi	a0,a0,-32 # 1cfe0 <__extenddftf2+0x54a>
   10fb0:	8082                	c.jr	ra
   10fb2:	6575                	c.lui	a0,0x1d
   10fb4:	20850513          	addi	a0,a0,520 # 1d208 <__extenddftf2+0x772>
   10fb8:	8082                	c.jr	ra
   10fba:	6575                	c.lui	a0,0x1d
   10fbc:	1d850513          	addi	a0,a0,472 # 1d1d8 <__extenddftf2+0x742>
   10fc0:	8082                	c.jr	ra
   10fc2:	6575                	c.lui	a0,0x1d
   10fc4:	1a850513          	addi	a0,a0,424 # 1d1a8 <__extenddftf2+0x712>
   10fc8:	8082                	c.jr	ra
   10fca:	6575                	c.lui	a0,0x1d
   10fcc:	19050513          	addi	a0,a0,400 # 1d190 <__extenddftf2+0x6fa>
   10fd0:	8082                	c.jr	ra
   10fd2:	6575                	c.lui	a0,0x1d
   10fd4:	17050513          	addi	a0,a0,368 # 1d170 <__extenddftf2+0x6da>
   10fd8:	8082                	c.jr	ra
   10fda:	6575                	c.lui	a0,0x1d
   10fdc:	15050513          	addi	a0,a0,336 # 1d150 <__extenddftf2+0x6ba>
   10fe0:	8082                	c.jr	ra
   10fe2:	6575                	c.lui	a0,0x1d
   10fe4:	12050513          	addi	a0,a0,288 # 1d120 <__extenddftf2+0x68a>
   10fe8:	8082                	c.jr	ra
   10fea:	6575                	c.lui	a0,0x1d
   10fec:	0fc50513          	addi	a0,a0,252 # 1d0fc <__extenddftf2+0x666>
   10ff0:	8082                	c.jr	ra
   10ff2:	6575                	c.lui	a0,0x1d
   10ff4:	1bc50513          	addi	a0,a0,444 # 1d1bc <__extenddftf2+0x726>
   10ff8:	8082                	c.jr	ra
   10ffa:	6575                	c.lui	a0,0x1d
   10ffc:	2a050513          	addi	a0,a0,672 # 1d2a0 <__extenddftf2+0x80a>
   11000:	8082                	c.jr	ra
   11002:	6575                	c.lui	a0,0x1d
   11004:	0e450513          	addi	a0,a0,228 # 1d0e4 <__extenddftf2+0x64e>
   11008:	8082                	c.jr	ra
   1100a:	6575                	c.lui	a0,0x1d
   1100c:	0c850513          	addi	a0,a0,200 # 1d0c8 <__extenddftf2+0x632>
   11010:	8082                	c.jr	ra
   11012:	6575                	c.lui	a0,0x1d
   11014:	0b450513          	addi	a0,a0,180 # 1d0b4 <__extenddftf2+0x61e>
   11018:	8082                	c.jr	ra
   1101a:	6575                	c.lui	a0,0x1d
   1101c:	09850513          	addi	a0,a0,152 # 1d098 <__extenddftf2+0x602>
   11020:	8082                	c.jr	ra
   11022:	6575                	c.lui	a0,0x1d
   11024:	08c50513          	addi	a0,a0,140 # 1d08c <__extenddftf2+0x5f6>
   11028:	8082                	c.jr	ra
   1102a:	6575                	c.lui	a0,0x1d
   1102c:	07850513          	addi	a0,a0,120 # 1d078 <__extenddftf2+0x5e2>
   11030:	8082                	c.jr	ra
   11032:	6575                	c.lui	a0,0x1d
   11034:	05450513          	addi	a0,a0,84 # 1d054 <__extenddftf2+0x5be>
   11038:	8082                	c.jr	ra
   1103a:	6575                	c.lui	a0,0x1d
   1103c:	03c50513          	addi	a0,a0,60 # 1d03c <__extenddftf2+0x5a6>
   11040:	8082                	c.jr	ra
   11042:	6575                	c.lui	a0,0x1d
   11044:	02850513          	addi	a0,a0,40 # 1d028 <__extenddftf2+0x592>
   11048:	8082                	c.jr	ra
   1104a:	6575                	c.lui	a0,0x1d
   1104c:	01050513          	addi	a0,a0,16 # 1d010 <__extenddftf2+0x57a>
   11050:	8082                	c.jr	ra
   11052:	6575                	c.lui	a0,0x1d
   11054:	11850513          	addi	a0,a0,280 # 1d118 <__extenddftf2+0x682>
   11058:	8082                	c.jr	ra
   1105a:	6575                	c.lui	a0,0x1d
   1105c:	00050513          	addi	a0,a0,0 # 1d000 <__extenddftf2+0x56a>
   11060:	8082                	c.jr	ra
   11062:	6575                	c.lui	a0,0x1d
   11064:	ff850513          	addi	a0,a0,-8 # 1cff8 <__extenddftf2+0x562>
   11068:	8082                	c.jr	ra
   1106a:	6575                	c.lui	a0,0x1d
   1106c:	fd450513          	addi	a0,a0,-44 # 1cfd4 <__extenddftf2+0x53e>
   11070:	8082                	c.jr	ra
   11072:	6575                	c.lui	a0,0x1d
   11074:	fa850513          	addi	a0,a0,-88 # 1cfa8 <__extenddftf2+0x512>
   11078:	8082                	c.jr	ra
   1107a:	6575                	c.lui	a0,0x1d
   1107c:	f8c50513          	addi	a0,a0,-116 # 1cf8c <__extenddftf2+0x4f6>
   11080:	8082                	c.jr	ra
   11082:	6575                	c.lui	a0,0x1d
   11084:	f7850513          	addi	a0,a0,-136 # 1cf78 <__extenddftf2+0x4e2>
   11088:	8082                	c.jr	ra
   1108a:	6575                	c.lui	a0,0x1d
   1108c:	f4850513          	addi	a0,a0,-184 # 1cf48 <__extenddftf2+0x4b2>
   11090:	8082                	c.jr	ra
   11092:	6575                	c.lui	a0,0x1d
   11094:	f3c50513          	addi	a0,a0,-196 # 1cf3c <__extenddftf2+0x4a6>
   11098:	8082                	c.jr	ra
   1109a:	6575                	c.lui	a0,0x1d
   1109c:	f2c50513          	addi	a0,a0,-212 # 1cf2c <__extenddftf2+0x496>
   110a0:	8082                	c.jr	ra
   110a2:	6575                	c.lui	a0,0x1d
   110a4:	f1450513          	addi	a0,a0,-236 # 1cf14 <__extenddftf2+0x47e>
   110a8:	8082                	c.jr	ra
   110aa:	6575                	c.lui	a0,0x1d
   110ac:	f0450513          	addi	a0,a0,-252 # 1cf04 <__extenddftf2+0x46e>
   110b0:	8082                	c.jr	ra
   110b2:	6575                	c.lui	a0,0x1d
   110b4:	edc50513          	addi	a0,a0,-292 # 1cedc <__extenddftf2+0x446>
   110b8:	8082                	c.jr	ra
   110ba:	6575                	c.lui	a0,0x1d
   110bc:	eb850513          	addi	a0,a0,-328 # 1ceb8 <__extenddftf2+0x422>
   110c0:	8082                	c.jr	ra
   110c2:	6575                	c.lui	a0,0x1d
   110c4:	ea850513          	addi	a0,a0,-344 # 1cea8 <__extenddftf2+0x412>
   110c8:	8082                	c.jr	ra
   110ca:	6575                	c.lui	a0,0x1d
   110cc:	e9050513          	addi	a0,a0,-368 # 1ce90 <__extenddftf2+0x3fa>
   110d0:	8082                	c.jr	ra
   110d2:	6575                	c.lui	a0,0x1d
   110d4:	e7050513          	addi	a0,a0,-400 # 1ce70 <__extenddftf2+0x3da>
   110d8:	8082                	c.jr	ra
   110da:	6575                	c.lui	a0,0x1d
   110dc:	e5050513          	addi	a0,a0,-432 # 1ce50 <__extenddftf2+0x3ba>
   110e0:	8082                	c.jr	ra
   110e2:	6575                	c.lui	a0,0x1d
   110e4:	df850513          	addi	a0,a0,-520 # 1cdf8 <__extenddftf2+0x362>
   110e8:	8082                	c.jr	ra
   110ea:	6575                	c.lui	a0,0x1d
   110ec:	de850513          	addi	a0,a0,-536 # 1cde8 <__extenddftf2+0x352>
   110f0:	8082                	c.jr	ra
   110f2:	6575                	c.lui	a0,0x1d
   110f4:	da850513          	addi	a0,a0,-600 # 1cda8 <__extenddftf2+0x312>
   110f8:	8082                	c.jr	ra
   110fa:	6575                	c.lui	a0,0x1d
   110fc:	d9850513          	addi	a0,a0,-616 # 1cd98 <__extenddftf2+0x302>
   11100:	8082                	c.jr	ra
   11102:	6575                	c.lui	a0,0x1d
   11104:	d8450513          	addi	a0,a0,-636 # 1cd84 <__extenddftf2+0x2ee>
   11108:	8082                	c.jr	ra
   1110a:	6575                	c.lui	a0,0x1d
   1110c:	d7850513          	addi	a0,a0,-648 # 1cd78 <__extenddftf2+0x2e2>
   11110:	8082                	c.jr	ra
   11112:	6575                	c.lui	a0,0x1d
   11114:	d6050513          	addi	a0,a0,-672 # 1cd60 <__extenddftf2+0x2ca>
   11118:	8082                	c.jr	ra
   1111a:	6575                	c.lui	a0,0x1d
   1111c:	d5450513          	addi	a0,a0,-684 # 1cd54 <__extenddftf2+0x2be>
   11120:	8082                	c.jr	ra
   11122:	6575                	c.lui	a0,0x1d
   11124:	d4050513          	addi	a0,a0,-704 # 1cd40 <__extenddftf2+0x2aa>
   11128:	8082                	c.jr	ra
   1112a:	6575                	c.lui	a0,0x1d
   1112c:	d2c50513          	addi	a0,a0,-724 # 1cd2c <__extenddftf2+0x296>
   11130:	8082                	c.jr	ra
   11132:	6575                	c.lui	a0,0x1d
   11134:	d1850513          	addi	a0,a0,-744 # 1cd18 <__extenddftf2+0x282>
   11138:	8082                	c.jr	ra
   1113a:	6575                	c.lui	a0,0x1d
   1113c:	cec50513          	addi	a0,a0,-788 # 1ccec <__extenddftf2+0x256>
   11140:	8082                	c.jr	ra
   11142:	6575                	c.lui	a0,0x1d
   11144:	cdc50513          	addi	a0,a0,-804 # 1ccdc <__extenddftf2+0x246>
   11148:	8082                	c.jr	ra
   1114a:	6575                	c.lui	a0,0x1d
   1114c:	cac50513          	addi	a0,a0,-852 # 1ccac <__extenddftf2+0x216>
   11150:	8082                	c.jr	ra
   11152:	6575                	c.lui	a0,0x1d
   11154:	c9850513          	addi	a0,a0,-872 # 1cc98 <__extenddftf2+0x202>
   11158:	8082                	c.jr	ra
   1115a:	6575                	c.lui	a0,0x1d
   1115c:	c7c50513          	addi	a0,a0,-900 # 1cc7c <__extenddftf2+0x1e6>
   11160:	8082                	c.jr	ra
   11162:	6575                	c.lui	a0,0x1d
   11164:	c7050513          	addi	a0,a0,-912 # 1cc70 <__extenddftf2+0x1da>
   11168:	8082                	c.jr	ra
   1116a:	6575                	c.lui	a0,0x1d
   1116c:	c5850513          	addi	a0,a0,-936 # 1cc58 <__extenddftf2+0x1c2>
   11170:	8082                	c.jr	ra
   11172:	6575                	c.lui	a0,0x1d
   11174:	c4850513          	addi	a0,a0,-952 # 1cc48 <__extenddftf2+0x1b2>
   11178:	8082                	c.jr	ra
   1117a:	6575                	c.lui	a0,0x1d
   1117c:	c2c50513          	addi	a0,a0,-980 # 1cc2c <__extenddftf2+0x196>
   11180:	8082                	c.jr	ra
   11182:	6575                	c.lui	a0,0x1d
   11184:	c2050513          	addi	a0,a0,-992 # 1cc20 <__extenddftf2+0x18a>
   11188:	8082                	c.jr	ra
   1118a:	6575                	c.lui	a0,0x1d
   1118c:	c1850513          	addi	a0,a0,-1000 # 1cc18 <__extenddftf2+0x182>
   11190:	8082                	c.jr	ra
   11192:	6575                	c.lui	a0,0x1d
   11194:	43450513          	addi	a0,a0,1076 # 1d434 <__extenddftf2+0x99e>
   11198:	bb95                	c.j	10f0c <_strerror_r+0x2e>
   1119a:	86aa                	c.mv	a3,a0
   1119c:	b39d                	c.j	10f02 <_strerror_r+0x24>

0001119e <strerror>:
   1119e:	85aa                	c.mv	a1,a0
   111a0:	f141a503          	lw	a0,-236(gp) # 1e724 <_impure_ptr>
   111a4:	4681                	c.li	a3,0
   111a6:	4601                	c.li	a2,0
   111a8:	bb1d                	c.j	10ede <_strerror_r>

000111aa <strerror_l>:
   111aa:	85aa                	c.mv	a1,a0
   111ac:	f141a503          	lw	a0,-236(gp) # 1e724 <_impure_ptr>
   111b0:	4681                	c.li	a3,0
   111b2:	4601                	c.li	a2,0
   111b4:	b32d                	c.j	10ede <_strerror_r>

000111b6 <_user_strerror>:
   111b6:	4501                	c.li	a0,0
   111b8:	8082                	c.jr	ra

000111ba <_close_r>:
   111ba:	1141                	c.addi	sp,-16
   111bc:	c422                	c.swsp	s0,8(sp)
   111be:	c226                	c.swsp	s1,4(sp)
   111c0:	842a                	c.mv	s0,a0
   111c2:	852e                	c.mv	a0,a1
   111c4:	c606                	c.swsp	ra,12(sp)
   111c6:	f201a423          	sw	zero,-216(gp) # 1e738 <errno>
   111ca:	417070ef          	jal	ra,18de0 <_close>
   111ce:	57fd                	c.li	a5,-1
   111d0:	00f50763          	beq	a0,a5,111de <_close_r+0x24>
   111d4:	40b2                	c.lwsp	ra,12(sp)
   111d6:	4422                	c.lwsp	s0,8(sp)
   111d8:	4492                	c.lwsp	s1,4(sp)
   111da:	0141                	c.addi	sp,16
   111dc:	8082                	c.jr	ra
   111de:	f281a783          	lw	a5,-216(gp) # 1e738 <errno>
   111e2:	dbed                	c.beqz	a5,111d4 <_close_r+0x1a>
   111e4:	40b2                	c.lwsp	ra,12(sp)
   111e6:	c01c                	c.sw	a5,0(s0)
   111e8:	4422                	c.lwsp	s0,8(sp)
   111ea:	4492                	c.lwsp	s1,4(sp)
   111ec:	0141                	c.addi	sp,16
   111ee:	8082                	c.jr	ra

000111f0 <_reclaim_reent>:
   111f0:	f141a783          	lw	a5,-236(gp) # 1e724 <_impure_ptr>
   111f4:	06a78b63          	beq	a5,a0,1126a <_reclaim_reent+0x7a>
   111f8:	416c                	c.lw	a1,68(a0)
   111fa:	1101                	c.addi	sp,-32
   111fc:	ca26                	c.swsp	s1,20(sp)
   111fe:	ce06                	c.swsp	ra,28(sp)
   11200:	cc22                	c.swsp	s0,24(sp)
   11202:	84aa                	c.mv	s1,a0
   11204:	c59d                	c.beqz	a1,11232 <_reclaim_reent+0x42>
   11206:	c84a                	c.swsp	s2,16(sp)
   11208:	c64e                	c.swsp	s3,12(sp)
   1120a:	4901                	c.li	s2,0
   1120c:	08000993          	addi	s3,zero,128
   11210:	012587b3          	add	a5,a1,s2
   11214:	4380                	c.lw	s0,0(a5)
   11216:	c419                	c.beqz	s0,11224 <_reclaim_reent+0x34>
   11218:	85a2                	c.mv	a1,s0
   1121a:	4000                	c.lw	s0,0(s0)
   1121c:	8526                	c.mv	a0,s1
   1121e:	21b1                	c.jal	1166a <_free_r>
   11220:	fc65                	c.bnez	s0,11218 <_reclaim_reent+0x28>
   11222:	40ec                	c.lw	a1,68(s1)
   11224:	0911                	c.addi	s2,4
   11226:	ff3915e3          	bne	s2,s3,11210 <_reclaim_reent+0x20>
   1122a:	8526                	c.mv	a0,s1
   1122c:	293d                	c.jal	1166a <_free_r>
   1122e:	4942                	c.lwsp	s2,16(sp)
   11230:	49b2                	c.lwsp	s3,12(sp)
   11232:	5c8c                	c.lw	a1,56(s1)
   11234:	c199                	c.beqz	a1,1123a <_reclaim_reent+0x4a>
   11236:	8526                	c.mv	a0,s1
   11238:	290d                	c.jal	1166a <_free_r>
   1123a:	40a0                	c.lw	s0,64(s1)
   1123c:	c411                	c.beqz	s0,11248 <_reclaim_reent+0x58>
   1123e:	85a2                	c.mv	a1,s0
   11240:	4000                	c.lw	s0,0(s0)
   11242:	8526                	c.mv	a0,s1
   11244:	211d                	c.jal	1166a <_free_r>
   11246:	fc65                	c.bnez	s0,1123e <_reclaim_reent+0x4e>
   11248:	44ec                	c.lw	a1,76(s1)
   1124a:	c199                	c.beqz	a1,11250 <_reclaim_reent+0x60>
   1124c:	8526                	c.mv	a0,s1
   1124e:	2931                	c.jal	1166a <_free_r>
   11250:	58dc                	c.lw	a5,52(s1)
   11252:	c799                	c.beqz	a5,11260 <_reclaim_reent+0x70>
   11254:	4462                	c.lwsp	s0,24(sp)
   11256:	40f2                	c.lwsp	ra,28(sp)
   11258:	8526                	c.mv	a0,s1
   1125a:	44d2                	c.lwsp	s1,20(sp)
   1125c:	6105                	c.addi16sp	sp,32
   1125e:	8782                	c.jr	a5
   11260:	40f2                	c.lwsp	ra,28(sp)
   11262:	4462                	c.lwsp	s0,24(sp)
   11264:	44d2                	c.lwsp	s1,20(sp)
   11266:	6105                	c.addi16sp	sp,32
   11268:	8082                	c.jr	ra
   1126a:	8082                	c.jr	ra

0001126c <_lseek_r>:
   1126c:	1141                	c.addi	sp,-16
   1126e:	872e                	c.mv	a4,a1
   11270:	c422                	c.swsp	s0,8(sp)
   11272:	c226                	c.swsp	s1,4(sp)
   11274:	85b2                	c.mv	a1,a2
   11276:	842a                	c.mv	s0,a0
   11278:	8636                	c.mv	a2,a3
   1127a:	853a                	c.mv	a0,a4
   1127c:	c606                	c.swsp	ra,12(sp)
   1127e:	f201a423          	sw	zero,-216(gp) # 1e738 <errno>
   11282:	423070ef          	jal	ra,18ea4 <_lseek>
   11286:	57fd                	c.li	a5,-1
   11288:	00f50763          	beq	a0,a5,11296 <_lseek_r+0x2a>
   1128c:	40b2                	c.lwsp	ra,12(sp)
   1128e:	4422                	c.lwsp	s0,8(sp)
   11290:	4492                	c.lwsp	s1,4(sp)
   11292:	0141                	c.addi	sp,16
   11294:	8082                	c.jr	ra
   11296:	f281a783          	lw	a5,-216(gp) # 1e738 <errno>
   1129a:	dbed                	c.beqz	a5,1128c <_lseek_r+0x20>
   1129c:	40b2                	c.lwsp	ra,12(sp)
   1129e:	c01c                	c.sw	a5,0(s0)
   112a0:	4422                	c.lwsp	s0,8(sp)
   112a2:	4492                	c.lwsp	s1,4(sp)
   112a4:	0141                	c.addi	sp,16
   112a6:	8082                	c.jr	ra

000112a8 <_read_r>:
   112a8:	1141                	c.addi	sp,-16
   112aa:	872e                	c.mv	a4,a1
   112ac:	c422                	c.swsp	s0,8(sp)
   112ae:	c226                	c.swsp	s1,4(sp)
   112b0:	85b2                	c.mv	a1,a2
   112b2:	842a                	c.mv	s0,a0
   112b4:	8636                	c.mv	a2,a3
   112b6:	853a                	c.mv	a0,a4
   112b8:	c606                	c.swsp	ra,12(sp)
   112ba:	f201a423          	sw	zero,-216(gp) # 1e738 <errno>
   112be:	413070ef          	jal	ra,18ed0 <_read>
   112c2:	57fd                	c.li	a5,-1
   112c4:	00f50763          	beq	a0,a5,112d2 <_read_r+0x2a>
   112c8:	40b2                	c.lwsp	ra,12(sp)
   112ca:	4422                	c.lwsp	s0,8(sp)
   112cc:	4492                	c.lwsp	s1,4(sp)
   112ce:	0141                	c.addi	sp,16
   112d0:	8082                	c.jr	ra
   112d2:	f281a783          	lw	a5,-216(gp) # 1e738 <errno>
   112d6:	dbed                	c.beqz	a5,112c8 <_read_r+0x20>
   112d8:	40b2                	c.lwsp	ra,12(sp)
   112da:	c01c                	c.sw	a5,0(s0)
   112dc:	4422                	c.lwsp	s0,8(sp)
   112de:	4492                	c.lwsp	s1,4(sp)
   112e0:	0141                	c.addi	sp,16
   112e2:	8082                	c.jr	ra

000112e4 <_sbrk_r>:
   112e4:	1141                	c.addi	sp,-16
   112e6:	c422                	c.swsp	s0,8(sp)
   112e8:	c226                	c.swsp	s1,4(sp)
   112ea:	842a                	c.mv	s0,a0
   112ec:	852e                	c.mv	a0,a1
   112ee:	c606                	c.swsp	ra,12(sp)
   112f0:	f201a423          	sw	zero,-216(gp) # 1e738 <errno>
   112f4:	409070ef          	jal	ra,18efc <_sbrk>
   112f8:	57fd                	c.li	a5,-1
   112fa:	00f50763          	beq	a0,a5,11308 <_sbrk_r+0x24>
   112fe:	40b2                	c.lwsp	ra,12(sp)
   11300:	4422                	c.lwsp	s0,8(sp)
   11302:	4492                	c.lwsp	s1,4(sp)
   11304:	0141                	c.addi	sp,16
   11306:	8082                	c.jr	ra
   11308:	f281a783          	lw	a5,-216(gp) # 1e738 <errno>
   1130c:	dbed                	c.beqz	a5,112fe <_sbrk_r+0x1a>
   1130e:	40b2                	c.lwsp	ra,12(sp)
   11310:	c01c                	c.sw	a5,0(s0)
   11312:	4422                	c.lwsp	s0,8(sp)
   11314:	4492                	c.lwsp	s1,4(sp)
   11316:	0141                	c.addi	sp,16
   11318:	8082                	c.jr	ra

0001131a <_write_r>:
   1131a:	1141                	c.addi	sp,-16
   1131c:	872e                	c.mv	a4,a1
   1131e:	c422                	c.swsp	s0,8(sp)
   11320:	c226                	c.swsp	s1,4(sp)
   11322:	85b2                	c.mv	a1,a2
   11324:	842a                	c.mv	s0,a0
   11326:	8636                	c.mv	a2,a3
   11328:	853a                	c.mv	a0,a4
   1132a:	c606                	c.swsp	ra,12(sp)
   1132c:	f201a423          	sw	zero,-216(gp) # 1e738 <errno>
   11330:	421070ef          	jal	ra,18f50 <_write>
   11334:	57fd                	c.li	a5,-1
   11336:	00f50763          	beq	a0,a5,11344 <_write_r+0x2a>
   1133a:	40b2                	c.lwsp	ra,12(sp)
   1133c:	4422                	c.lwsp	s0,8(sp)
   1133e:	4492                	c.lwsp	s1,4(sp)
   11340:	0141                	c.addi	sp,16
   11342:	8082                	c.jr	ra
   11344:	f281a783          	lw	a5,-216(gp) # 1e738 <errno>
   11348:	dbed                	c.beqz	a5,1133a <_write_r+0x20>
   1134a:	40b2                	c.lwsp	ra,12(sp)
   1134c:	c01c                	c.sw	a5,0(s0)
   1134e:	4422                	c.lwsp	s0,8(sp)
   11350:	4492                	c.lwsp	s1,4(sp)
   11352:	0141                	c.addi	sp,16
   11354:	8082                	c.jr	ra

00011356 <__libc_init_array>:
   11356:	1141                	c.addi	sp,-16
   11358:	c422                	c.swsp	s0,8(sp)
   1135a:	67f9                	c.lui	a5,0x1e
   1135c:	6479                	c.lui	s0,0x1e
   1135e:	c04a                	c.swsp	s2,0(sp)
   11360:	00078793          	addi	a5,a5,0 # 1e000 <__init_array_start>
   11364:	00040713          	addi	a4,s0,0 # 1e000 <__init_array_start>
   11368:	c606                	c.swsp	ra,12(sp)
   1136a:	c226                	c.swsp	s1,4(sp)
   1136c:	40e78933          	sub	s2,a5,a4
   11370:	00e78d63          	beq	a5,a4,1138a <__libc_init_array+0x34>
   11374:	40295913          	srai	s2,s2,0x2
   11378:	00040413          	addi	s0,s0,0
   1137c:	4481                	c.li	s1,0
   1137e:	401c                	c.lw	a5,0(s0)
   11380:	0485                	c.addi	s1,1
   11382:	0411                	c.addi	s0,4
   11384:	9782                	c.jalr	a5
   11386:	ff24ece3          	bltu	s1,s2,1137e <__libc_init_array+0x28>
   1138a:	67f9                	c.lui	a5,0x1e
   1138c:	6479                	c.lui	s0,0x1e
   1138e:	00878793          	addi	a5,a5,8 # 1e008 <__do_global_dtors_aux_fini_array_entry>
   11392:	00040713          	addi	a4,s0,0 # 1e000 <__init_array_start>
   11396:	40e78933          	sub	s2,a5,a4
   1139a:	40295913          	srai	s2,s2,0x2
   1139e:	00e78b63          	beq	a5,a4,113b4 <__libc_init_array+0x5e>
   113a2:	00040413          	addi	s0,s0,0
   113a6:	4481                	c.li	s1,0
   113a8:	401c                	c.lw	a5,0(s0)
   113aa:	0485                	c.addi	s1,1
   113ac:	0411                	c.addi	s0,4
   113ae:	9782                	c.jalr	a5
   113b0:	ff24ece3          	bltu	s1,s2,113a8 <__libc_init_array+0x52>
   113b4:	40b2                	c.lwsp	ra,12(sp)
   113b6:	4422                	c.lwsp	s0,8(sp)
   113b8:	4492                	c.lwsp	s1,4(sp)
   113ba:	4902                	c.lwsp	s2,0(sp)
   113bc:	0141                	c.addi	sp,16
   113be:	8082                	c.jr	ra

000113c0 <memset>:
   113c0:	433d                	c.li	t1,15
   113c2:	872a                	c.mv	a4,a0
   113c4:	02c37363          	bgeu	t1,a2,113ea <memset+0x2a>
   113c8:	00f77793          	andi	a5,a4,15
   113cc:	efbd                	c.bnez	a5,1144a <memset+0x8a>
   113ce:	e5ad                	c.bnez	a1,11438 <memset+0x78>
   113d0:	ff067693          	andi	a3,a2,-16
   113d4:	8a3d                	c.andi	a2,15
   113d6:	96ba                	c.add	a3,a4
   113d8:	c30c                	c.sw	a1,0(a4)
   113da:	c34c                	c.sw	a1,4(a4)
   113dc:	c70c                	c.sw	a1,8(a4)
   113de:	c74c                	c.sw	a1,12(a4)
   113e0:	0741                	c.addi	a4,16
   113e2:	fed76be3          	bltu	a4,a3,113d8 <memset+0x18>
   113e6:	e211                	c.bnez	a2,113ea <memset+0x2a>
   113e8:	8082                	c.jr	ra
   113ea:	40c306b3          	sub	a3,t1,a2
   113ee:	068a                	c.slli	a3,0x2
   113f0:	00000297          	auipc	t0,0x0
   113f4:	9696                	c.add	a3,t0
   113f6:	00a68067          	jalr	zero,10(a3)
   113fa:	00b70723          	sb	a1,14(a4)
   113fe:	00b706a3          	sb	a1,13(a4)
   11402:	00b70623          	sb	a1,12(a4)
   11406:	00b705a3          	sb	a1,11(a4)
   1140a:	00b70523          	sb	a1,10(a4)
   1140e:	00b704a3          	sb	a1,9(a4)
   11412:	00b70423          	sb	a1,8(a4)
   11416:	00b703a3          	sb	a1,7(a4)
   1141a:	00b70323          	sb	a1,6(a4)
   1141e:	00b702a3          	sb	a1,5(a4)
   11422:	00b70223          	sb	a1,4(a4)
   11426:	00b701a3          	sb	a1,3(a4)
   1142a:	00b70123          	sb	a1,2(a4)
   1142e:	00b700a3          	sb	a1,1(a4)
   11432:	00b70023          	sb	a1,0(a4)
   11436:	8082                	c.jr	ra
   11438:	0ff5f593          	andi	a1,a1,255
   1143c:	00859693          	slli	a3,a1,0x8
   11440:	8dd5                	c.or	a1,a3
   11442:	01059693          	slli	a3,a1,0x10
   11446:	8dd5                	c.or	a1,a3
   11448:	b761                	c.j	113d0 <memset+0x10>
   1144a:	00279693          	slli	a3,a5,0x2
   1144e:	00000297          	auipc	t0,0x0
   11452:	9696                	c.add	a3,t0
   11454:	8286                	c.mv	t0,ra
   11456:	fa8680e7          	jalr	ra,-88(a3)
   1145a:	8096                	c.mv	ra,t0
   1145c:	17c1                	c.addi	a5,-16
   1145e:	8f1d                	c.sub	a4,a5
   11460:	963e                	c.add	a2,a5
   11462:	f8c374e3          	bgeu	t1,a2,113ea <memset+0x2a>
   11466:	b7a5                	c.j	113ce <memset+0xe>

00011468 <strlen>:
   11468:	00357793          	andi	a5,a0,3
   1146c:	872a                	c.mv	a4,a0
   1146e:	ef9d                	c.bnez	a5,114ac <strlen+0x44>
   11470:	7f7f86b7          	lui	a3,0x7f7f8
   11474:	f7f68693          	addi	a3,a3,-129 # 7f7f7f7f <__BSS_END__+0x7f7d952b>
   11478:	55fd                	c.li	a1,-1
   1147a:	4310                	c.lw	a2,0(a4)
   1147c:	0711                	c.addi	a4,4
   1147e:	00d677b3          	and	a5,a2,a3
   11482:	97b6                	c.add	a5,a3
   11484:	8fd1                	c.or	a5,a2
   11486:	8fd5                	c.or	a5,a3
   11488:	feb789e3          	beq	a5,a1,1147a <strlen+0x12>
   1148c:	ffc74683          	lbu	a3,-4(a4)
   11490:	40a707b3          	sub	a5,a4,a0
   11494:	ca8d                	c.beqz	a3,114c6 <strlen+0x5e>
   11496:	ffd74683          	lbu	a3,-3(a4)
   1149a:	c29d                	c.beqz	a3,114c0 <strlen+0x58>
   1149c:	ffe74503          	lbu	a0,-2(a4)
   114a0:	00a03533          	sltu	a0,zero,a0
   114a4:	953e                	c.add	a0,a5
   114a6:	1579                	c.addi	a0,-2
   114a8:	8082                	c.jr	ra
   114aa:	d2f9                	c.beqz	a3,11470 <strlen+0x8>
   114ac:	00074783          	lbu	a5,0(a4)
   114b0:	0705                	c.addi	a4,1
   114b2:	00377693          	andi	a3,a4,3
   114b6:	fbf5                	c.bnez	a5,114aa <strlen+0x42>
   114b8:	8f09                	c.sub	a4,a0
   114ba:	fff70513          	addi	a0,a4,-1
   114be:	8082                	c.jr	ra
   114c0:	ffd78513          	addi	a0,a5,-3
   114c4:	8082                	c.jr	ra
   114c6:	ffc78513          	addi	a0,a5,-4
   114ca:	8082                	c.jr	ra

000114cc <__call_exitprocs>:
   114cc:	7179                	c.addi16sp	sp,-48
   114ce:	cc52                	c.swsp	s4,24(sp)
   114d0:	d04a                	c.swsp	s2,32(sp)
   114d2:	f2c1a903          	lw	s2,-212(gp) # 1e73c <__atexit>
   114d6:	d606                	c.swsp	ra,44(sp)
   114d8:	04090663          	beq	s2,zero,11524 <__call_exitprocs+0x58>
   114dc:	ce4e                	c.swsp	s3,28(sp)
   114de:	ca56                	c.swsp	s5,20(sp)
   114e0:	c85a                	c.swsp	s6,16(sp)
   114e2:	c65e                	c.swsp	s7,12(sp)
   114e4:	d422                	c.swsp	s0,40(sp)
   114e6:	d226                	c.swsp	s1,36(sp)
   114e8:	c462                	c.swsp	s8,8(sp)
   114ea:	8b2a                	c.mv	s6,a0
   114ec:	8bae                	c.mv	s7,a1
   114ee:	59fd                	c.li	s3,-1
   114f0:	4a85                	c.li	s5,1
   114f2:	00492483          	lw	s1,4(s2)
   114f6:	fff48413          	addi	s0,s1,-1
   114fa:	00044e63          	blt	s0,zero,11516 <__call_exitprocs+0x4a>
   114fe:	048a                	c.slli	s1,0x2
   11500:	94ca                	c.add	s1,s2
   11502:	020b8663          	beq	s7,zero,1152e <__call_exitprocs+0x62>
   11506:	1044a783          	lw	a5,260(s1)
   1150a:	03778263          	beq	a5,s7,1152e <__call_exitprocs+0x62>
   1150e:	147d                	c.addi	s0,-1
   11510:	14f1                	c.addi	s1,-4
   11512:	ff341ae3          	bne	s0,s3,11506 <__call_exitprocs+0x3a>
   11516:	5422                	c.lwsp	s0,40(sp)
   11518:	5492                	c.lwsp	s1,36(sp)
   1151a:	49f2                	c.lwsp	s3,28(sp)
   1151c:	4ad2                	c.lwsp	s5,20(sp)
   1151e:	4b42                	c.lwsp	s6,16(sp)
   11520:	4bb2                	c.lwsp	s7,12(sp)
   11522:	4c22                	c.lwsp	s8,8(sp)
   11524:	50b2                	c.lwsp	ra,44(sp)
   11526:	5902                	c.lwsp	s2,32(sp)
   11528:	4a62                	c.lwsp	s4,24(sp)
   1152a:	6145                	c.addi16sp	sp,48
   1152c:	8082                	c.jr	ra
   1152e:	00492783          	lw	a5,4(s2)
   11532:	40d4                	c.lw	a3,4(s1)
   11534:	17fd                	c.addi	a5,-1
   11536:	04878c63          	beq	a5,s0,1158e <__call_exitprocs+0xc2>
   1153a:	0004a223          	sw	zero,4(s1)
   1153e:	c295                	c.beqz	a3,11562 <__call_exitprocs+0x96>
   11540:	18892783          	lw	a5,392(s2)
   11544:	008a9733          	sll	a4,s5,s0
   11548:	00492c03          	lw	s8,4(s2)
   1154c:	8ff9                	c.and	a5,a4
   1154e:	ef99                	c.bnez	a5,1156c <__call_exitprocs+0xa0>
   11550:	9682                	c.jalr	a3
   11552:	00492703          	lw	a4,4(s2)
   11556:	f2c1a783          	lw	a5,-212(gp) # 1e73c <__atexit>
   1155a:	03871763          	bne	a4,s8,11588 <__call_exitprocs+0xbc>
   1155e:	03279563          	bne	a5,s2,11588 <__call_exitprocs+0xbc>
   11562:	147d                	c.addi	s0,-1
   11564:	14f1                	c.addi	s1,-4
   11566:	f9341ee3          	bne	s0,s3,11502 <__call_exitprocs+0x36>
   1156a:	b775                	c.j	11516 <__call_exitprocs+0x4a>
   1156c:	18c92783          	lw	a5,396(s2)
   11570:	0844a583          	lw	a1,132(s1)
   11574:	8f7d                	c.and	a4,a5
   11576:	ef19                	c.bnez	a4,11594 <__call_exitprocs+0xc8>
   11578:	855a                	c.mv	a0,s6
   1157a:	9682                	c.jalr	a3
   1157c:	00492703          	lw	a4,4(s2)
   11580:	f2c1a783          	lw	a5,-212(gp) # 1e73c <__atexit>
   11584:	fd870de3          	beq	a4,s8,1155e <__call_exitprocs+0x92>
   11588:	d7d9                	c.beqz	a5,11516 <__call_exitprocs+0x4a>
   1158a:	893e                	c.mv	s2,a5
   1158c:	b79d                	c.j	114f2 <__call_exitprocs+0x26>
   1158e:	00892223          	sw	s0,4(s2)
   11592:	b775                	c.j	1153e <__call_exitprocs+0x72>
   11594:	852e                	c.mv	a0,a1
   11596:	9682                	c.jalr	a3
   11598:	bf6d                	c.j	11552 <__call_exitprocs+0x86>

0001159a <atexit>:
   1159a:	85aa                	c.mv	a1,a0
   1159c:	4681                	c.li	a3,0
   1159e:	4601                	c.li	a2,0
   115a0:	4501                	c.li	a0,0
   115a2:	3ae0306f          	jal	zero,14950 <__register_exitproc>

000115a6 <_malloc_trim_r>:
   115a6:	1101                	c.addi	sp,-32
   115a8:	c64e                	c.swsp	s3,12(sp)
   115aa:	69f9                	c.lui	s3,0x1e
   115ac:	cc22                	c.swsp	s0,24(sp)
   115ae:	ca26                	c.swsp	s1,20(sp)
   115b0:	c84a                	c.swsp	s2,16(sp)
   115b2:	c452                	c.swsp	s4,8(sp)
   115b4:	ce06                	c.swsp	ra,28(sp)
   115b6:	8a2e                	c.mv	s4,a1
   115b8:	892a                	c.mv	s2,a0
   115ba:	01098993          	addi	s3,s3,16 # 1e010 <__malloc_av_>
   115be:	ad8ff0ef          	jal	ra,10896 <__malloc_lock>
   115c2:	0089a783          	lw	a5,8(s3)
   115c6:	6405                	c.lui	s0,0x1
   115c8:	143d                	c.addi	s0,-17 # fef <exit-0xf0c5>
   115ca:	43c4                	c.lw	s1,4(a5)
   115cc:	6785                	c.lui	a5,0x1
   115ce:	98f1                	c.andi	s1,-4
   115d0:	9426                	c.add	s0,s1
   115d2:	41440433          	sub	s0,s0,s4
   115d6:	8031                	c.srli	s0,0xc
   115d8:	147d                	c.addi	s0,-1
   115da:	0432                	c.slli	s0,0xc
   115dc:	00f44a63          	blt	s0,a5,115f0 <_malloc_trim_r+0x4a>
   115e0:	4581                	c.li	a1,0
   115e2:	854a                	c.mv	a0,s2
   115e4:	3301                	c.jal	112e4 <_sbrk_r>
   115e6:	0089a783          	lw	a5,8(s3)
   115ea:	97a6                	c.add	a5,s1
   115ec:	00f50e63          	beq	a0,a5,11608 <_malloc_trim_r+0x62>
   115f0:	854a                	c.mv	a0,s2
   115f2:	aa6ff0ef          	jal	ra,10898 <__malloc_unlock>
   115f6:	40f2                	c.lwsp	ra,28(sp)
   115f8:	4462                	c.lwsp	s0,24(sp)
   115fa:	44d2                	c.lwsp	s1,20(sp)
   115fc:	4942                	c.lwsp	s2,16(sp)
   115fe:	49b2                	c.lwsp	s3,12(sp)
   11600:	4a22                	c.lwsp	s4,8(sp)
   11602:	4501                	c.li	a0,0
   11604:	6105                	c.addi16sp	sp,32
   11606:	8082                	c.jr	ra
   11608:	408005b3          	sub	a1,zero,s0
   1160c:	854a                	c.mv	a0,s2
   1160e:	39d9                	c.jal	112e4 <_sbrk_r>
   11610:	57fd                	c.li	a5,-1
   11612:	02f50963          	beq	a0,a5,11644 <_malloc_trim_r+0x9e>
   11616:	f5418793          	addi	a5,gp,-172 # 1e764 <__malloc_current_mallinfo>
   1161a:	0089a683          	lw	a3,8(s3)
   1161e:	4398                	c.lw	a4,0(a5)
   11620:	8c81                	c.sub	s1,s0
   11622:	0014e493          	ori	s1,s1,1
   11626:	854a                	c.mv	a0,s2
   11628:	8f01                	c.sub	a4,s0
   1162a:	c2c4                	c.sw	s1,4(a3)
   1162c:	c398                	c.sw	a4,0(a5)
   1162e:	a6aff0ef          	jal	ra,10898 <__malloc_unlock>
   11632:	40f2                	c.lwsp	ra,28(sp)
   11634:	4462                	c.lwsp	s0,24(sp)
   11636:	44d2                	c.lwsp	s1,20(sp)
   11638:	4942                	c.lwsp	s2,16(sp)
   1163a:	49b2                	c.lwsp	s3,12(sp)
   1163c:	4a22                	c.lwsp	s4,8(sp)
   1163e:	4505                	c.li	a0,1
   11640:	6105                	c.addi16sp	sp,32
   11642:	8082                	c.jr	ra
   11644:	4581                	c.li	a1,0
   11646:	854a                	c.mv	a0,s2
   11648:	3971                	c.jal	112e4 <_sbrk_r>
   1164a:	0089a703          	lw	a4,8(s3)
   1164e:	46bd                	c.li	a3,15
   11650:	40e507b3          	sub	a5,a0,a4
   11654:	f8f6dee3          	bge	a3,a5,115f0 <_malloc_trim_r+0x4a>
   11658:	f0c1a603          	lw	a2,-244(gp) # 1e71c <__malloc_sbrk_base>
   1165c:	0017e793          	ori	a5,a5,1
   11660:	8d11                	c.sub	a0,a2
   11662:	c35c                	c.sw	a5,4(a4)
   11664:	f4a1aa23          	sw	a0,-172(gp) # 1e764 <__malloc_current_mallinfo>
   11668:	b761                	c.j	115f0 <_malloc_trim_r+0x4a>

0001166a <_free_r>:
   1166a:	c1e5                	c.beqz	a1,1174a <_free_r+0xe0>
   1166c:	1141                	c.addi	sp,-16
   1166e:	c422                	c.swsp	s0,8(sp)
   11670:	c226                	c.swsp	s1,4(sp)
   11672:	842e                	c.mv	s0,a1
   11674:	84aa                	c.mv	s1,a0
   11676:	c606                	c.swsp	ra,12(sp)
   11678:	a1eff0ef          	jal	ra,10896 <__malloc_lock>
   1167c:	ffc42503          	lw	a0,-4(s0)
   11680:	ff840713          	addi	a4,s0,-8
   11684:	65f9                	c.lui	a1,0x1e
   11686:	ffe57793          	andi	a5,a0,-2
   1168a:	00f70633          	add	a2,a4,a5
   1168e:	01058593          	addi	a1,a1,16 # 1e010 <__malloc_av_>
   11692:	4254                	c.lw	a3,4(a2)
   11694:	0085a803          	lw	a6,8(a1)
   11698:	00157893          	andi	a7,a0,1
   1169c:	9af1                	c.andi	a3,-4
   1169e:	12c80263          	beq	a6,a2,117c2 <_free_r+0x158>
   116a2:	c254                	c.sw	a3,4(a2)
   116a4:	00d60833          	add	a6,a2,a3
   116a8:	00482803          	lw	a6,4(a6)
   116ac:	00187813          	andi	a6,a6,1
   116b0:	06089863          	bne	a7,zero,11720 <_free_r+0xb6>
   116b4:	ff842303          	lw	t1,-8(s0)
   116b8:	6579                	c.lui	a0,0x1e
   116ba:	01850513          	addi	a0,a0,24 # 1e018 <__malloc_av_+0x8>
   116be:	40670733          	sub	a4,a4,t1
   116c2:	00872883          	lw	a7,8(a4)
   116c6:	979a                	c.add	a5,t1
   116c8:	0ea88063          	beq	a7,a0,117a8 <_free_r+0x13e>
   116cc:	00c72303          	lw	t1,12(a4)
   116d0:	0068a623          	sw	t1,12(a7)
   116d4:	01132423          	sw	a7,8(t1)
   116d8:	10080d63          	beq	a6,zero,117f2 <_free_r+0x188>
   116dc:	0017e693          	ori	a3,a5,1
   116e0:	c354                	c.sw	a3,4(a4)
   116e2:	c21c                	c.sw	a5,0(a2)
   116e4:	1ff00693          	addi	a3,zero,511
   116e8:	06f6eb63          	bltu	a3,a5,1175e <_free_r+0xf4>
   116ec:	ff87f693          	andi	a3,a5,-8
   116f0:	06a1                	c.addi	a3,8
   116f2:	41c8                	c.lw	a0,4(a1)
   116f4:	96ae                	c.add	a3,a1
   116f6:	4290                	c.lw	a2,0(a3)
   116f8:	0057d813          	srli	a6,a5,0x5
   116fc:	4785                	c.li	a5,1
   116fe:	010797b3          	sll	a5,a5,a6
   11702:	8fc9                	c.or	a5,a0
   11704:	ff868513          	addi	a0,a3,-8
   11708:	c710                	c.sw	a2,8(a4)
   1170a:	c748                	c.sw	a0,12(a4)
   1170c:	c1dc                	c.sw	a5,4(a1)
   1170e:	c298                	c.sw	a4,0(a3)
   11710:	c658                	c.sw	a4,12(a2)
   11712:	4422                	c.lwsp	s0,8(sp)
   11714:	40b2                	c.lwsp	ra,12(sp)
   11716:	8526                	c.mv	a0,s1
   11718:	4492                	c.lwsp	s1,4(sp)
   1171a:	0141                	c.addi	sp,16
   1171c:	97cff06f          	jal	zero,10898 <__malloc_unlock>
   11720:	02081663          	bne	a6,zero,1174c <_free_r+0xe2>
   11724:	6579                	c.lui	a0,0x1e
   11726:	97b6                	c.add	a5,a3
   11728:	01850513          	addi	a0,a0,24 # 1e018 <__malloc_av_+0x8>
   1172c:	4614                	c.lw	a3,8(a2)
   1172e:	0017e893          	ori	a7,a5,1
   11732:	00f70833          	add	a6,a4,a5
   11736:	0ea68a63          	beq	a3,a0,1182a <_free_r+0x1c0>
   1173a:	4650                	c.lw	a2,12(a2)
   1173c:	c6d0                	c.sw	a2,12(a3)
   1173e:	c614                	c.sw	a3,8(a2)
   11740:	01172223          	sw	a7,4(a4)
   11744:	00f82023          	sw	a5,0(a6)
   11748:	bf71                	c.j	116e4 <_free_r+0x7a>
   1174a:	8082                	c.jr	ra
   1174c:	00156513          	ori	a0,a0,1
   11750:	fea42e23          	sw	a0,-4(s0)
   11754:	c21c                	c.sw	a5,0(a2)
   11756:	1ff00693          	addi	a3,zero,511
   1175a:	f8f6f9e3          	bgeu	a3,a5,116ec <_free_r+0x82>
   1175e:	0097d693          	srli	a3,a5,0x9
   11762:	4611                	c.li	a2,4
   11764:	08d66963          	bltu	a2,a3,117f6 <_free_r+0x18c>
   11768:	0067d693          	srli	a3,a5,0x6
   1176c:	03968513          	addi	a0,a3,57
   11770:	050e                	c.slli	a0,0x3
   11772:	03868613          	addi	a2,a3,56
   11776:	952e                	c.add	a0,a1
   11778:	4114                	c.lw	a3,0(a0)
   1177a:	1561                	c.addi	a0,-8
   1177c:	00d51663          	bne	a0,a3,11788 <_free_r+0x11e>
   11780:	a875                	c.j	1183c <_free_r+0x1d2>
   11782:	4694                	c.lw	a3,8(a3)
   11784:	00d50663          	beq	a0,a3,11790 <_free_r+0x126>
   11788:	42d0                	c.lw	a2,4(a3)
   1178a:	9a71                	c.andi	a2,-4
   1178c:	fec7ebe3          	bltu	a5,a2,11782 <_free_r+0x118>
   11790:	46c8                	c.lw	a0,12(a3)
   11792:	c748                	c.sw	a0,12(a4)
   11794:	c714                	c.sw	a3,8(a4)
   11796:	4422                	c.lwsp	s0,8(sp)
   11798:	c518                	c.sw	a4,8(a0)
   1179a:	40b2                	c.lwsp	ra,12(sp)
   1179c:	8526                	c.mv	a0,s1
   1179e:	4492                	c.lwsp	s1,4(sp)
   117a0:	c6d8                	c.sw	a4,12(a3)
   117a2:	0141                	c.addi	sp,16
   117a4:	8f4ff06f          	jal	zero,10898 <__malloc_unlock>
   117a8:	06081663          	bne	a6,zero,11814 <_free_r+0x1aa>
   117ac:	464c                	c.lw	a1,12(a2)
   117ae:	4610                	c.lw	a2,8(a2)
   117b0:	96be                	c.add	a3,a5
   117b2:	0016e793          	ori	a5,a3,1
   117b6:	c64c                	c.sw	a1,12(a2)
   117b8:	c590                	c.sw	a2,8(a1)
   117ba:	c35c                	c.sw	a5,4(a4)
   117bc:	9736                	c.add	a4,a3
   117be:	c314                	c.sw	a3,0(a4)
   117c0:	bf89                	c.j	11712 <_free_r+0xa8>
   117c2:	96be                	c.add	a3,a5
   117c4:	00089a63          	bne	a7,zero,117d8 <_free_r+0x16e>
   117c8:	ff842503          	lw	a0,-8(s0)
   117cc:	8f09                	c.sub	a4,a0
   117ce:	475c                	c.lw	a5,12(a4)
   117d0:	4710                	c.lw	a2,8(a4)
   117d2:	96aa                	c.add	a3,a0
   117d4:	c65c                	c.sw	a5,12(a2)
   117d6:	c790                	c.sw	a2,8(a5)
   117d8:	0016e613          	ori	a2,a3,1
   117dc:	f101a783          	lw	a5,-240(gp) # 1e720 <__malloc_trim_threshold>
   117e0:	c350                	c.sw	a2,4(a4)
   117e2:	c598                	c.sw	a4,8(a1)
   117e4:	f2f6e7e3          	bltu	a3,a5,11712 <_free_r+0xa8>
   117e8:	f201a583          	lw	a1,-224(gp) # 1e730 <__malloc_top_pad>
   117ec:	8526                	c.mv	a0,s1
   117ee:	3b65                	c.jal	115a6 <_malloc_trim_r>
   117f0:	b70d                	c.j	11712 <_free_r+0xa8>
   117f2:	97b6                	c.add	a5,a3
   117f4:	bf25                	c.j	1172c <_free_r+0xc2>
   117f6:	4651                	c.li	a2,20
   117f8:	02d67363          	bgeu	a2,a3,1181e <_free_r+0x1b4>
   117fc:	05400613          	addi	a2,zero,84
   11800:	04d66863          	bltu	a2,a3,11850 <_free_r+0x1e6>
   11804:	00c7d693          	srli	a3,a5,0xc
   11808:	06f68513          	addi	a0,a3,111
   1180c:	050e                	c.slli	a0,0x3
   1180e:	06e68613          	addi	a2,a3,110
   11812:	b795                	c.j	11776 <_free_r+0x10c>
   11814:	0017e693          	ori	a3,a5,1
   11818:	c354                	c.sw	a3,4(a4)
   1181a:	c21c                	c.sw	a5,0(a2)
   1181c:	bddd                	c.j	11712 <_free_r+0xa8>
   1181e:	05c68513          	addi	a0,a3,92
   11822:	050e                	c.slli	a0,0x3
   11824:	05b68613          	addi	a2,a3,91
   11828:	b7b9                	c.j	11776 <_free_r+0x10c>
   1182a:	c9d8                	c.sw	a4,20(a1)
   1182c:	c998                	c.sw	a4,16(a1)
   1182e:	c748                	c.sw	a0,12(a4)
   11830:	c708                	c.sw	a0,8(a4)
   11832:	01172223          	sw	a7,4(a4)
   11836:	00f82023          	sw	a5,0(a6)
   1183a:	bde1                	c.j	11712 <_free_r+0xa8>
   1183c:	0045a803          	lw	a6,4(a1)
   11840:	8609                	c.srai	a2,0x2
   11842:	4785                	c.li	a5,1
   11844:	00c797b3          	sll	a5,a5,a2
   11848:	0107e7b3          	or	a5,a5,a6
   1184c:	c1dc                	c.sw	a5,4(a1)
   1184e:	b791                	c.j	11792 <_free_r+0x128>
   11850:	15400613          	addi	a2,zero,340
   11854:	00d66a63          	bltu	a2,a3,11868 <_free_r+0x1fe>
   11858:	00f7d693          	srli	a3,a5,0xf
   1185c:	07868513          	addi	a0,a3,120
   11860:	050e                	c.slli	a0,0x3
   11862:	07768613          	addi	a2,a3,119
   11866:	bf01                	c.j	11776 <_free_r+0x10c>
   11868:	55400613          	addi	a2,zero,1364
   1186c:	00d66a63          	bltu	a2,a3,11880 <_free_r+0x216>
   11870:	0127d693          	srli	a3,a5,0x12
   11874:	07d68513          	addi	a0,a3,125
   11878:	050e                	c.slli	a0,0x3
   1187a:	07c68613          	addi	a2,a3,124
   1187e:	bde5                	c.j	11776 <_free_r+0x10c>
   11880:	3f800513          	addi	a0,zero,1016
   11884:	07e00613          	addi	a2,zero,126
   11888:	b5fd                	c.j	11776 <_free_r+0x10c>

0001188a <_strtoll_l.isra.0>:
   1188a:	7139                	c.addi16sp	sp,-64
   1188c:	6775                	c.lui	a4,0x1d
   1188e:	d64e                	c.swsp	s3,44(sp)
   11890:	d256                	c.swsp	s5,36(sp)
   11892:	d05a                	c.swsp	s6,32(sp)
   11894:	ce5e                	c.swsp	s7,28(sp)
   11896:	cc62                	c.swsp	s8,24(sp)
   11898:	de06                	c.swsp	ra,60(sp)
   1189a:	dc22                	c.swsp	s0,56(sp)
   1189c:	da26                	c.swsp	s1,52(sp)
   1189e:	d84a                	c.swsp	s2,48(sp)
   118a0:	d452                	c.swsp	s4,40(sp)
   118a2:	ca66                	c.swsp	s9,20(sp)
   118a4:	c86a                	c.swsp	s10,16(sp)
   118a6:	c66e                	c.swsp	s11,12(sp)
   118a8:	8bae                	c.mv	s7,a1
   118aa:	89aa                	c.mv	s3,a0
   118ac:	8c32                	c.mv	s8,a2
   118ae:	8b36                	c.mv	s6,a3
   118b0:	8aae                	c.mv	s5,a1
   118b2:	7a570713          	addi	a4,a4,1957 # 1d7a5 <_ctype_+0x1>
   118b6:	86d6                	c.mv	a3,s5
   118b8:	000ac403          	lbu	s0,0(s5)
   118bc:	0a85                	c.addi	s5,1
   118be:	008707b3          	add	a5,a4,s0
   118c2:	0007c783          	lbu	a5,0(a5) # 1000 <exit-0xf0b4>
   118c6:	8ba1                	c.andi	a5,8
   118c8:	f7fd                	c.bnez	a5,118b6 <_strtoll_l.isra.0+0x2c>
   118ca:	02d00793          	addi	a5,zero,45
   118ce:	14f40463          	beq	s0,a5,11a16 <_strtoll_l.isra.0+0x18c>
   118d2:	02b00793          	addi	a5,zero,43
   118d6:	800004b7          	lui	s1,0x80000
   118da:	0af40163          	beq	s0,a5,1197c <_strtoll_l.isra.0+0xf2>
   118de:	14fd                	c.addi	s1,-1 # 7fffffff <__BSS_END__+0x7ffe15ab>
   118e0:	597d                	c.li	s2,-1
   118e2:	4a01                	c.li	s4,0
   118e4:	0a0b1563          	bne	s6,zero,1198e <_strtoll_l.isra.0+0x104>
   118e8:	03000793          	addi	a5,zero,48
   118ec:	14f40163          	beq	s0,a5,11a2e <_strtoll_l.isra.0+0x1a4>
   118f0:	4ca9                	c.li	s9,10
   118f2:	8b66                	c.mv	s6,s9
   118f4:	4d81                	c.li	s11,0
   118f6:	8666                	c.mv	a2,s9
   118f8:	86ee                	c.mv	a3,s11
   118fa:	854a                	c.mv	a0,s2
   118fc:	85a6                	c.mv	a1,s1
   118fe:	24b070ef          	jal	ra,19348 <__umoddi3>
   11902:	8666                	c.mv	a2,s9
   11904:	86ee                	c.mv	a3,s11
   11906:	8d2a                	c.mv	s10,a0
   11908:	85a6                	c.mv	a1,s1
   1190a:	854a                	c.mv	a0,s2
   1190c:	6e6070ef          	jal	ra,18ff2 <__udivdi3>
   11910:	8e2a                	c.mv	t3,a0
   11912:	88ae                	c.mv	a7,a1
   11914:	4801                	c.li	a6,0
   11916:	4501                	c.li	a0,0
   11918:	4581                	c.li	a1,0
   1191a:	4325                	c.li	t1,9
   1191c:	4665                	c.li	a2,25
   1191e:	56fd                	c.li	a3,-1
   11920:	fd040793          	addi	a5,s0,-48
   11924:	00f37863          	bgeu	t1,a5,11934 <_strtoll_l.isra.0+0xaa>
   11928:	fbf40793          	addi	a5,s0,-65
   1192c:	06f66863          	bltu	a2,a5,1199c <_strtoll_l.isra.0+0x112>
   11930:	fc940793          	addi	a5,s0,-55
   11934:	0767dc63          	bge	a5,s6,119ac <_strtoll_l.isra.0+0x122>
   11938:	02d80c63          	beq	a6,a3,11970 <_strtoll_l.isra.0+0xe6>
   1193c:	02b8ee63          	bltu	a7,a1,11978 <_strtoll_l.isra.0+0xee>
   11940:	01159463          	bne	a1,a7,11948 <_strtoll_l.isra.0+0xbe>
   11944:	02ae6a63          	bltu	t3,a0,11978 <_strtoll_l.isra.0+0xee>
   11948:	0aae0463          	beq	t3,a0,119f0 <_strtoll_l.isra.0+0x166>
   1194c:	03958733          	mul	a4,a1,s9
   11950:	41f7d593          	srai	a1,a5,0x1f
   11954:	4805                	c.li	a6,1
   11956:	02ad8f33          	mul	t5,s11,a0
   1195a:	03953eb3          	mulhu	t4,a0,s9
   1195e:	977a                	c.add	a4,t5
   11960:	03950533          	mul	a0,a0,s9
   11964:	9776                	c.add	a4,t4
   11966:	95ba                	c.add	a1,a4
   11968:	953e                	c.add	a0,a5
   1196a:	00f537b3          	sltu	a5,a0,a5
   1196e:	95be                	c.add	a1,a5
   11970:	0a85                	c.addi	s5,1
   11972:	fffac403          	lbu	s0,-1(s5)
   11976:	b76d                	c.j	11920 <_strtoll_l.isra.0+0x96>
   11978:	587d                	c.li	a6,-1
   1197a:	bfdd                	c.j	11970 <_strtoll_l.isra.0+0xe6>
   1197c:	000ac403          	lbu	s0,0(s5)
   11980:	14fd                	c.addi	s1,-1
   11982:	00268a93          	addi	s5,a3,2
   11986:	597d                	c.li	s2,-1
   11988:	4a01                	c.li	s4,0
   1198a:	f40b0fe3          	beq	s6,zero,118e8 <_strtoll_l.isra.0+0x5e>
   1198e:	47c1                	c.li	a5,16
   11990:	0afb0b63          	beq	s6,a5,11a46 <_strtoll_l.isra.0+0x1bc>
   11994:	8cda                	c.mv	s9,s6
   11996:	41fb5d93          	srai	s11,s6,0x1f
   1199a:	bfb1                	c.j	118f6 <_strtoll_l.isra.0+0x6c>
   1199c:	f9f40793          	addi	a5,s0,-97
   119a0:	00f66663          	bltu	a2,a5,119ac <_strtoll_l.isra.0+0x122>
   119a4:	fa940793          	addi	a5,s0,-87
   119a8:	f967c8e3          	blt	a5,s6,11938 <_strtoll_l.isra.0+0xae>
   119ac:	57fd                	c.li	a5,-1
   119ae:	04f80763          	beq	a6,a5,119fc <_strtoll_l.isra.0+0x172>
   119b2:	000a0a63          	beq	s4,zero,119c6 <_strtoll_l.isra.0+0x13c>
   119b6:	00a03733          	sltu	a4,zero,a0
   119ba:	40b007b3          	sub	a5,zero,a1
   119be:	40e785b3          	sub	a1,a5,a4
   119c2:	40a00533          	sub	a0,zero,a0
   119c6:	000c0663          	beq	s8,zero,119d2 <_strtoll_l.isra.0+0x148>
   119ca:	04081f63          	bne	a6,zero,11a28 <_strtoll_l.isra.0+0x19e>
   119ce:	017c2023          	sw	s7,0(s8)
   119d2:	50f2                	c.lwsp	ra,60(sp)
   119d4:	5462                	c.lwsp	s0,56(sp)
   119d6:	54d2                	c.lwsp	s1,52(sp)
   119d8:	5942                	c.lwsp	s2,48(sp)
   119da:	59b2                	c.lwsp	s3,44(sp)
   119dc:	5a22                	c.lwsp	s4,40(sp)
   119de:	5a92                	c.lwsp	s5,36(sp)
   119e0:	5b02                	c.lwsp	s6,32(sp)
   119e2:	4bf2                	c.lwsp	s7,28(sp)
   119e4:	4c62                	c.lwsp	s8,24(sp)
   119e6:	4cd2                	c.lwsp	s9,20(sp)
   119e8:	4d42                	c.lwsp	s10,16(sp)
   119ea:	4db2                	c.lwsp	s11,12(sp)
   119ec:	6121                	c.addi16sp	sp,64
   119ee:	8082                	c.jr	ra
   119f0:	f4b89ee3          	bne	a7,a1,1194c <_strtoll_l.isra.0+0xc2>
   119f4:	587d                	c.li	a6,-1
   119f6:	f6fd4de3          	blt	s10,a5,11970 <_strtoll_l.isra.0+0xe6>
   119fa:	bf89                	c.j	1194c <_strtoll_l.isra.0+0xc2>
   119fc:	02200793          	addi	a5,zero,34
   11a00:	00f9a023          	sw	a5,0(s3)
   11a04:	854a                	c.mv	a0,s2
   11a06:	85a6                	c.mv	a1,s1
   11a08:	fc0c05e3          	beq	s8,zero,119d2 <_strtoll_l.isra.0+0x148>
   11a0c:	fffa8b93          	addi	s7,s5,-1
   11a10:	854a                	c.mv	a0,s2
   11a12:	85a6                	c.mv	a1,s1
   11a14:	bf6d                	c.j	119ce <_strtoll_l.isra.0+0x144>
   11a16:	000ac403          	lbu	s0,0(s5)
   11a1a:	4901                	c.li	s2,0
   11a1c:	00268a93          	addi	s5,a3,2
   11a20:	800004b7          	lui	s1,0x80000
   11a24:	4a05                	c.li	s4,1
   11a26:	bd7d                	c.j	118e4 <_strtoll_l.isra.0+0x5a>
   11a28:	892a                	c.mv	s2,a0
   11a2a:	84ae                	c.mv	s1,a1
   11a2c:	b7c5                	c.j	11a0c <_strtoll_l.isra.0+0x182>
   11a2e:	000ac783          	lbu	a5,0(s5)
   11a32:	05800713          	addi	a4,zero,88
   11a36:	0df7f793          	andi	a5,a5,223
   11a3a:	02e78463          	beq	a5,a4,11a62 <_strtoll_l.isra.0+0x1d8>
   11a3e:	4ca1                	c.li	s9,8
   11a40:	8b66                	c.mv	s6,s9
   11a42:	4d81                	c.li	s11,0
   11a44:	bd4d                	c.j	118f6 <_strtoll_l.isra.0+0x6c>
   11a46:	03000793          	addi	a5,zero,48
   11a4a:	8cda                	c.mv	s9,s6
   11a4c:	4d81                	c.li	s11,0
   11a4e:	eaf414e3          	bne	s0,a5,118f6 <_strtoll_l.isra.0+0x6c>
   11a52:	000ac783          	lbu	a5,0(s5)
   11a56:	05800713          	addi	a4,zero,88
   11a5a:	0df7f793          	andi	a5,a5,223
   11a5e:	e8e79ce3          	bne	a5,a4,118f6 <_strtoll_l.isra.0+0x6c>
   11a62:	4cc1                	c.li	s9,16
   11a64:	001ac403          	lbu	s0,1(s5)
   11a68:	8b66                	c.mv	s6,s9
   11a6a:	4d81                	c.li	s11,0
   11a6c:	0a89                	c.addi	s5,2
   11a6e:	b561                	c.j	118f6 <_strtoll_l.isra.0+0x6c>

00011a70 <_strtoll_r>:
   11a70:	bd29                	c.j	1188a <_strtoll_l.isra.0>

00011a72 <strtoll_l>:
   11a72:	872a                	c.mv	a4,a0
   11a74:	f141a503          	lw	a0,-236(gp) # 1e724 <_impure_ptr>
   11a78:	87ae                	c.mv	a5,a1
   11a7a:	86b2                	c.mv	a3,a2
   11a7c:	85ba                	c.mv	a1,a4
   11a7e:	863e                	c.mv	a2,a5
   11a80:	b529                	c.j	1188a <_strtoll_l.isra.0>

00011a82 <strtoll>:
   11a82:	872a                	c.mv	a4,a0
   11a84:	f141a503          	lw	a0,-236(gp) # 1e724 <_impure_ptr>
   11a88:	87ae                	c.mv	a5,a1
   11a8a:	86b2                	c.mv	a3,a2
   11a8c:	85ba                	c.mv	a1,a4
   11a8e:	863e                	c.mv	a2,a5
   11a90:	bbed                	c.j	1188a <_strtoll_l.isra.0>

00011a92 <_vfprintf_r>:
   11a92:	7145                	c.addi16sp	sp,-464
   11a94:	1c112623          	sw	ra,460(sp)
   11a98:	1c812423          	sw	s0,456(sp)
   11a9c:	1b312e23          	sw	s3,444(sp)
   11aa0:	c432                	c.swsp	a2,8(sp)
   11aa2:	89ae                	c.mv	s3,a1
   11aa4:	c836                	c.swsp	a3,16(sp)
   11aa6:	842a                	c.mv	s0,a0
   11aa8:	c22a                	c.swsp	a0,4(sp)
   11aaa:	3af020ef          	jal	ra,14658 <_localeconv_r>
   11aae:	411c                	c.lw	a5,0(a0)
   11ab0:	853e                	c.mv	a0,a5
   11ab2:	d63e                	c.swsp	a5,44(sp)
   11ab4:	9b5ff0ef          	jal	ra,11468 <strlen>
   11ab8:	d22a                	c.swsp	a0,36(sp)
   11aba:	c982                	c.swsp	zero,208(sp)
   11abc:	cb82                	c.swsp	zero,212(sp)
   11abe:	cd82                	c.swsp	zero,216(sp)
   11ac0:	cf82                	c.swsp	zero,220(sp)
   11ac2:	47a2                	c.lwsp	a5,8(sp)
   11ac4:	c409                	c.beqz	s0,11ace <_vfprintf_r+0x3c>
   11ac6:	5858                	c.lw	a4,52(s0)
   11ac8:	e319                	c.bnez	a4,11ace <_vfprintf_r+0x3c>
   11aca:	42e0106f          	jal	zero,12ef8 <_vfprintf_r+0x1466>
   11ace:	00c99703          	lh	a4,12(s3)
   11ad2:	0649a683          	lw	a3,100(s3)
   11ad6:	6589                	c.lui	a1,0x2
   11ad8:	01271613          	slli	a2,a4,0x12
   11adc:	26064d63          	blt	a2,zero,11d56 <_vfprintf_r+0x2c4>
   11ae0:	7679                	c.lui	a2,0xffffe
   11ae2:	8f4d                	c.or	a4,a1
   11ae4:	167d                	c.addi	a2,-1 # ffffdfff <__BSS_END__+0xfffdf5ab>
   11ae6:	8ef1                	c.and	a3,a2
   11ae8:	00e99623          	sh	a4,12(s3)
   11aec:	0742                	c.slli	a4,0x10
   11aee:	8741                	c.srai	a4,0x10
   11af0:	06d9a223          	sw	a3,100(s3)
   11af4:	00877693          	andi	a3,a4,8
   11af8:	1e068c63          	beq	a3,zero,11cf0 <_vfprintf_r+0x25e>
   11afc:	0109a683          	lw	a3,16(s3)
   11b00:	1e068863          	beq	a3,zero,11cf0 <_vfprintf_r+0x25e>
   11b04:	8b69                	c.andi	a4,26
   11b06:	46a9                	c.li	a3,10
   11b08:	20d70163          	beq	a4,a3,11d0a <_vfprintf_r+0x278>
   11b0c:	1c912223          	sw	s1,452(sp)
   11b10:	1d212023          	sw	s2,448(sp)
   11b14:	1b512a23          	sw	s5,436(sp)
   11b18:	1b612823          	sw	s6,432(sp)
   11b1c:	1b412c23          	sw	s4,440(sp)
   11b20:	1b712623          	sw	s7,428(sp)
   11b24:	1b812423          	sw	s8,424(sp)
   11b28:	1b912223          	sw	s9,420(sp)
   11b2c:	1ba12023          	sw	s10,416(sp)
   11b30:	19b12e23          	sw	s11,412(sp)
   11b34:	8b3e                	c.mv	s6,a5
   11b36:	000b4783          	lbu	a5,0(s6)
   11b3a:	0ec10a93          	addi	s5,sp,236
   11b3e:	c782                	c.swsp	zero,204(sp)
   11b40:	c582                	c.swsp	zero,200(sp)
   11b42:	c3d6                	c.swsp	s5,196(sp)
   11b44:	cc02                	c.swsp	zero,24(sp)
   11b46:	da02                	c.swsp	zero,52(sp)
   11b48:	d402                	c.swsp	zero,40(sp)
   11b4a:	c282                	c.swsp	zero,68(sp)
   11b4c:	dc02                	c.swsp	zero,56(sp)
   11b4e:	c602                	c.swsp	zero,12(sp)
   11b50:	c44e                	c.swsp	s3,8(sp)
   11b52:	8456                	c.mv	s0,s5
   11b54:	02500493          	addi	s1,zero,37
   11b58:	4941                	c.li	s2,16
   11b5a:	18078063          	beq	a5,zero,11cda <_vfprintf_r+0x248>
   11b5e:	8a5a                	c.mv	s4,s6
   11b60:	1c978a63          	beq	a5,s1,11d34 <_vfprintf_r+0x2a2>
   11b64:	001a4783          	lbu	a5,1(s4)
   11b68:	0a05                	c.addi	s4,1
   11b6a:	fbfd                	c.bnez	a5,11b60 <_vfprintf_r+0xce>
   11b6c:	416a0d33          	sub	s10,s4,s6
   11b70:	176a0563          	beq	s4,s6,11cda <_vfprintf_r+0x248>
   11b74:	47be                	c.lwsp	a5,204(sp)
   11b76:	46ae                	c.lwsp	a3,200(sp)
   11b78:	01642023          	sw	s6,0(s0)
   11b7c:	97ea                	c.add	a5,s10
   11b7e:	0685                	c.addi	a3,1
   11b80:	01a42223          	sw	s10,4(s0)
   11b84:	c7be                	c.swsp	a5,204(sp)
   11b86:	c5b6                	c.swsp	a3,200(sp)
   11b88:	479d                	c.li	a5,7
   11b8a:	0421                	c.addi	s0,8
   11b8c:	1ad7cb63          	blt	a5,a3,11d42 <_vfprintf_r+0x2b0>
   11b90:	4732                	c.lwsp	a4,12(sp)
   11b92:	000a4783          	lbu	a5,0(s4)
   11b96:	976a                	c.add	a4,s10
   11b98:	c63a                	c.swsp	a4,12(sp)
   11b9a:	14078063          	beq	a5,zero,11cda <_vfprintf_r+0x248>
   11b9e:	001a0e93          	addi	t4,s4,1
   11ba2:	4301                	c.li	t1,0
   11ba4:	001a4883          	lbu	a7,1(s4)
   11ba8:	0a0103a3          	sb	zero,167(sp)
   11bac:	5a7d                	c.li	s4,-1
   11bae:	4c81                	c.li	s9,0
   11bb0:	05a00d13          	addi	s10,zero,90
   11bb4:	89f6                	c.mv	s3,t4
   11bb6:	8b9a                	c.mv	s7,t1
   11bb8:	0985                	c.addi	s3,1
   11bba:	fe088793          	addi	a5,a7,-32
   11bbe:	02fd6f63          	bltu	s10,a5,11bfc <_vfprintf_r+0x16a>
   11bc2:	6779                	c.lui	a4,0x1e
   11bc4:	078a                	c.slli	a5,0x2
   11bc6:	8a870713          	addi	a4,a4,-1880 # 1d8a8 <_ctype_+0x104>
   11bca:	97ba                	c.add	a5,a4
   11bcc:	439c                	c.lw	a5,0(a5)
   11bce:	8782                	c.jr	a5
   11bd0:	fd088793          	addi	a5,a7,-48
   11bd4:	4b81                	c.li	s7,0
   11bd6:	46a5                	c.li	a3,9
   11bd8:	002b9713          	slli	a4,s7,0x2
   11bdc:	0009c883          	lbu	a7,0(s3)
   11be0:	01770333          	add	t1,a4,s7
   11be4:	0306                	c.slli	t1,0x1
   11be6:	00678bb3          	add	s7,a5,t1
   11bea:	fd088793          	addi	a5,a7,-48
   11bee:	0985                	c.addi	s3,1
   11bf0:	fef6f4e3          	bgeu	a3,a5,11bd8 <_vfprintf_r+0x146>
   11bf4:	fe088793          	addi	a5,a7,-32
   11bf8:	fcfd75e3          	bgeu	s10,a5,11bc2 <_vfprintf_r+0x130>
   11bfc:	8ece                	c.mv	t4,s3
   11bfe:	835e                	c.mv	t1,s7
   11c00:	0c088d63          	beq	a7,zero,11cda <_vfprintf_r+0x248>
   11c04:	4d85                	c.li	s11,1
   11c06:	13110623          	sb	a7,300(sp)
   11c0a:	0a0103a3          	sb	zero,167(sp)
   11c0e:	8d6e                	c.mv	s10,s11
   11c10:	ca02                	c.swsp	zero,20(sp)
   11c12:	4a01                	c.li	s4,0
   11c14:	d002                	c.swsp	zero,32(sp)
   11c16:	ce02                	c.swsp	zero,28(sp)
   11c18:	4b81                	c.li	s7,0
   11c1a:	12c10b13          	addi	s6,sp,300
   11c1e:	463e                	c.lwsp	a2,204(sp)
   11c20:	084cf993          	andi	s3,s9,132
   11c24:	85b2                	c.mv	a1,a2
   11c26:	38098363          	beq	s3,zero,11fac <_vfprintf_r+0x51a>
   11c2a:	0a714783          	lbu	a5,167(sp)
   11c2e:	cf95                	c.beqz	a5,11c6a <_vfprintf_r+0x1d8>
   11c30:	452e                	c.lwsp	a0,200(sp)
   11c32:	4781                	c.li	a5,0
   11c34:	4685                	c.li	a3,1
   11c36:	0605                	c.addi	a2,1
   11c38:	0505                	c.addi	a0,1
   11c3a:	0a710593          	addi	a1,sp,167
   11c3e:	c054                	c.sw	a3,4(s0)
   11c40:	c00c                	c.sw	a1,0(s0)
   11c42:	c7b2                	c.swsp	a2,204(sp)
   11c44:	c5aa                	c.swsp	a0,200(sp)
   11c46:	469d                	c.li	a3,7
   11c48:	0421                	c.addi	s0,8
   11c4a:	1ea6ca63          	blt	a3,a0,11e3e <_vfprintf_r+0x3ac>
   11c4e:	cf91                	c.beqz	a5,11c6a <_vfprintf_r+0x1d8>
   11c50:	452e                	c.lwsp	a0,200(sp)
   11c52:	4789                	c.li	a5,2
   11c54:	0609                	c.addi	a2,2
   11c56:	0505                	c.addi	a0,1
   11c58:	1134                	c.addi4spn	a3,sp,168
   11c5a:	c05c                	c.sw	a5,4(s0)
   11c5c:	c014                	c.sw	a3,0(s0)
   11c5e:	c7b2                	c.swsp	a2,204(sp)
   11c60:	c5aa                	c.swsp	a0,200(sp)
   11c62:	479d                	c.li	a5,7
   11c64:	0421                	c.addi	s0,8
   11c66:	36a7c7e3          	blt	a5,a0,127d4 <_vfprintf_r+0xd42>
   11c6a:	08000793          	addi	a5,zero,128
   11c6e:	18f98ce3          	beq	s3,a5,12606 <_vfprintf_r+0xb74>
   11c72:	41ba0a33          	sub	s4,s4,s11
   11c76:	35404763          	blt	zero,s4,11fc4 <_vfprintf_r+0x532>
   11c7a:	100cf793          	andi	a5,s9,256
   11c7e:	3e079163          	bne	a5,zero,12060 <_vfprintf_r+0x5ce>
   11c82:	47ae                	c.lwsp	a5,200(sp)
   11c84:	966e                	c.add	a2,s11
   11c86:	c7b2                	c.swsp	a2,204(sp)
   11c88:	0785                	c.addi	a5,1
   11c8a:	01642023          	sw	s6,0(s0)
   11c8e:	01b42223          	sw	s11,4(s0)
   11c92:	c5be                	c.swsp	a5,200(sp)
   11c94:	469d                	c.li	a3,7
   11c96:	20f6c463          	blt	a3,a5,11e9e <_vfprintf_r+0x40c>
   11c9a:	0421                	c.addi	s0,8
   11c9c:	004cfe13          	andi	t3,s9,4
   11ca0:	000e0663          	beq	t3,zero,11cac <_vfprintf_r+0x21a>
   11ca4:	41a30a33          	sub	s4,t1,s10
   11ca8:	21404963          	blt	zero,s4,11eba <_vfprintf_r+0x428>
   11cac:	01a35363          	bge	t1,s10,11cb2 <_vfprintf_r+0x220>
   11cb0:	836a                	c.mv	t1,s10
   11cb2:	47b2                	c.lwsp	a5,12(sp)
   11cb4:	979a                	c.add	a5,t1
   11cb6:	c63e                	c.swsp	a5,12(sp)
   11cb8:	1e0617e3          	bne	a2,zero,126a6 <_vfprintf_r+0xc14>
   11cbc:	47d2                	c.lwsp	a5,20(sp)
   11cbe:	c582                	c.swsp	zero,200(sp)
   11cc0:	c799                	c.beqz	a5,11cce <_vfprintf_r+0x23c>
   11cc2:	45d2                	c.lwsp	a1,20(sp)
   11cc4:	4512                	c.lwsp	a0,4(sp)
   11cc6:	ce76                	c.swsp	t4,28(sp)
   11cc8:	9a3ff0ef          	jal	ra,1166a <_free_r>
   11ccc:	4ef2                	c.lwsp	t4,28(sp)
   11cce:	8456                	c.mv	s0,s5
   11cd0:	8b76                	c.mv	s6,t4
   11cd2:	000b4783          	lbu	a5,0(s6)
   11cd6:	e80794e3          	bne	a5,zero,11b5e <_vfprintf_r+0xcc>
   11cda:	47be                	c.lwsp	a5,204(sp)
   11cdc:	49a2                	c.lwsp	s3,8(sp)
   11cde:	1e0783e3          	beq	a5,zero,126c4 <_vfprintf_r+0xc32>
   11ce2:	4512                	c.lwsp	a0,4(sp)
   11ce4:	01d0                	c.addi4spn	a2,sp,196
   11ce6:	85ce                	c.mv	a1,s3
   11ce8:	0cc020ef          	jal	ra,13db4 <__sprint_r>
   11cec:	1d90006f          	jal	zero,126c4 <_vfprintf_r+0xc32>
   11cf0:	4512                	c.lwsp	a0,4(sp)
   11cf2:	85ce                	c.mv	a1,s3
   11cf4:	c43e                	c.swsp	a5,8(sp)
   11cf6:	734020ef          	jal	ra,1442a <__swsetup_r>
   11cfa:	e135                	c.bnez	a0,11d5e <_vfprintf_r+0x2cc>
   11cfc:	00c99703          	lh	a4,12(s3)
   11d00:	46a9                	c.li	a3,10
   11d02:	47a2                	c.lwsp	a5,8(sp)
   11d04:	8b69                	c.andi	a4,26
   11d06:	e0d713e3          	bne	a4,a3,11b0c <_vfprintf_r+0x7a>
   11d0a:	00e99703          	lh	a4,14(s3)
   11d0e:	de074fe3          	blt	a4,zero,11b0c <_vfprintf_r+0x7a>
   11d12:	46c2                	c.lwsp	a3,16(sp)
   11d14:	4512                	c.lwsp	a0,4(sp)
   11d16:	863e                	c.mv	a2,a5
   11d18:	85ce                	c.mv	a1,s3
   11d1a:	006020ef          	jal	ra,13d20 <__sbprintf>
   11d1e:	c62a                	c.swsp	a0,12(sp)
   11d20:	1d90006f          	jal	zero,126f8 <_vfprintf_r+0xc66>
   11d24:	0009c883          	lbu	a7,0(s3)
   11d28:	bd41                	c.j	11bb8 <_vfprintf_r+0x126>
   11d2a:	0009c883          	lbu	a7,0(s3)
   11d2e:	020cec93          	ori	s9,s9,32
   11d32:	b559                	c.j	11bb8 <_vfprintf_r+0x126>
   11d34:	416a0d33          	sub	s10,s4,s6
   11d38:	e36a1ee3          	bne	s4,s6,11b74 <_vfprintf_r+0xe2>
   11d3c:	000a4783          	lbu	a5,0(s4)
   11d40:	bda9                	c.j	11b9a <_vfprintf_r+0x108>
   11d42:	45a2                	c.lwsp	a1,8(sp)
   11d44:	4512                	c.lwsp	a0,4(sp)
   11d46:	01d0                	c.addi4spn	a2,sp,196
   11d48:	06c020ef          	jal	ra,13db4 <__sprint_r>
   11d4c:	c119                	c.beqz	a0,11d52 <_vfprintf_r+0x2c0>
   11d4e:	61f0106f          	jal	zero,13b6c <_vfprintf_r+0x20da>
   11d52:	8456                	c.mv	s0,s5
   11d54:	bd35                	c.j	11b90 <_vfprintf_r+0xfe>
   11d56:	01269613          	slli	a2,a3,0x12
   11d5a:	d8065de3          	bge	a2,zero,11af4 <_vfprintf_r+0x62>
   11d5e:	57fd                	c.li	a5,-1
   11d60:	c63e                	c.swsp	a5,12(sp)
   11d62:	1970006f          	jal	zero,126f8 <_vfprintf_r+0xc66>
   11d66:	008cf793          	andi	a5,s9,8
   11d6a:	8ece                	c.mv	t4,s3
   11d6c:	835e                	c.mv	t1,s7
   11d6e:	4e0796e3          	bne	a5,zero,12a5a <_vfprintf_r+0xfc8>
   11d72:	47c2                	c.lwsp	a5,16(sp)
   11d74:	0908                	c.addi4spn	a0,sp,144
   11d76:	d046                	c.swsp	a7,32(sp)
   11d78:	079d                	c.addi	a5,7
   11d7a:	9be1                	c.andi	a5,-8
   11d7c:	43d0                	c.lw	a2,4(a5)
   11d7e:	438c                	c.lw	a1,0(a5)
   11d80:	07a1                	c.addi	a5,8
   11d82:	c83e                	c.swsp	a5,16(sp)
   11d84:	ce5e                	c.swsp	s7,28(sp)
   11d86:	ca4e                	c.swsp	s3,20(sp)
   11d88:	50f0a0ef          	jal	ra,1ca96 <__extenddftf2>
   11d8c:	464a                	c.lwsp	a2,144(sp)
   11d8e:	46da                	c.lwsp	a3,148(sp)
   11d90:	476a                	c.lwsp	a4,152(sp)
   11d92:	47fa                	c.lwsp	a5,156(sp)
   11d94:	5882                	c.lwsp	a7,32(sp)
   11d96:	4372                	c.lwsp	t1,28(sp)
   11d98:	4ed2                	c.lwsp	t4,20(sp)
   11d9a:	0988                	c.addi4spn	a0,sp,208
   11d9c:	d046                	c.swsp	a7,32(sp)
   11d9e:	ce1a                	c.swsp	t1,28(sp)
   11da0:	ca76                	c.swsp	t4,20(sp)
   11da2:	cfbe                	c.swsp	a5,220(sp)
   11da4:	c9b2                	c.swsp	a2,208(sp)
   11da6:	cbb6                	c.swsp	a3,212(sp)
   11da8:	cdba                	c.swsp	a4,216(sp)
   11daa:	5b5020ef          	jal	ra,14b5e <_ldcheck>
   11dae:	d72a                	c.swsp	a0,172(sp)
   11db0:	4789                	c.li	a5,2
   11db2:	4ed2                	c.lwsp	t4,20(sp)
   11db4:	4372                	c.lwsp	t1,28(sp)
   11db6:	5882                	c.lwsp	a7,32(sp)
   11db8:	00f51463          	bne	a0,a5,11dc0 <_vfprintf_r+0x32e>
   11dbc:	1920106f          	jal	zero,12f4e <_vfprintf_r+0x14bc>
   11dc0:	4785                	c.li	a5,1
   11dc2:	00f51463          	bne	a0,a5,11dca <_vfprintf_r+0x338>
   11dc6:	23e0106f          	jal	zero,13004 <_vfprintf_r+0x1572>
   11dca:	06100713          	addi	a4,zero,97
   11dce:	00e89463          	bne	a7,a4,11dd6 <_vfprintf_r+0x344>
   11dd2:	3170106f          	jal	zero,138e8 <_vfprintf_r+0x1e56>
   11dd6:	04100713          	addi	a4,zero,65
   11dda:	00e89463          	bne	a7,a4,11de2 <_vfprintf_r+0x350>
   11dde:	6c40106f          	jal	zero,134a2 <_vfprintf_r+0x1a10>
   11de2:	577d                	c.li	a4,-1
   11de4:	00ea1463          	bne	s4,a4,11dec <_vfprintf_r+0x35a>
   11de8:	55f0106f          	jal	zero,13b46 <_vfprintf_r+0x20b4>
   11dec:	fdf8f713          	andi	a4,a7,-33
   11df0:	04700693          	addi	a3,zero,71
   11df4:	ca02                	c.swsp	zero,20(sp)
   11df6:	00d71463          	bne	a4,a3,11dfe <_vfprintf_r+0x36c>
   11dfa:	53f0106f          	jal	zero,13b38 <_vfprintf_r+0x20a6>
   11dfe:	4f7e                	c.lwsp	t5,220(sp)
   11e00:	100ce793          	ori	a5,s9,256
   11e04:	d802                	c.swsp	zero,48(sp)
   11e06:	43ce                	c.lwsp	t2,208(sp)
   11e08:	42de                	c.lwsp	t0,212(sp)
   11e0a:	4fee                	c.lwsp	t6,216(sp)
   11e0c:	8c3e                	c.mv	s8,a5
   11e0e:	000f5963          	bge	t5,zero,11e20 <_vfprintf_r+0x38e>
   11e12:	800007b7          	lui	a5,0x80000
   11e16:	00ff4f33          	xor	t5,t5,a5
   11e1a:	02d00793          	addi	a5,zero,45
   11e1e:	d83e                	c.swsp	a5,48(sp)
   11e20:	fbf88793          	addi	a5,a7,-65
   11e24:	02500713          	addi	a4,zero,37
   11e28:	00f77463          	bgeu	a4,a5,11e30 <_vfprintf_r+0x39e>
   11e2c:	4b20106f          	jal	zero,132de <_vfprintf_r+0x184c>
   11e30:	6779                	c.lui	a4,0x1e
   11e32:	078a                	c.slli	a5,0x2
   11e34:	a1470713          	addi	a4,a4,-1516 # 1da14 <_ctype_+0x270>
   11e38:	97ba                	c.add	a5,a4
   11e3a:	439c                	c.lw	a5,0(a5)
   11e3c:	8782                	c.jr	a5
   11e3e:	45a2                	c.lwsp	a1,8(sp)
   11e40:	4512                	c.lwsp	a0,4(sp)
   11e42:	01d0                	c.addi4spn	a2,sp,196
   11e44:	c4c6                	c.swsp	a7,72(sp)
   11e46:	c0be                	c.swsp	a5,64(sp)
   11e48:	de1a                	c.swsp	t1,60(sp)
   11e4a:	d876                	c.swsp	t4,48(sp)
   11e4c:	769010ef          	jal	ra,13db4 <__sprint_r>
   11e50:	060514e3          	bne	a0,zero,126b8 <_vfprintf_r+0xc26>
   11e54:	463e                	c.lwsp	a2,204(sp)
   11e56:	48a6                	c.lwsp	a7,72(sp)
   11e58:	4786                	c.lwsp	a5,64(sp)
   11e5a:	5372                	c.lwsp	t1,60(sp)
   11e5c:	5ec2                	c.lwsp	t4,48(sp)
   11e5e:	8456                	c.mv	s0,s5
   11e60:	b3fd                	c.j	11c4e <_vfprintf_r+0x1bc>
   11e62:	46ae                	c.lwsp	a3,200(sp)
   11e64:	5712                	c.lwsp	a4,36(sp)
   11e66:	55b2                	c.lwsp	a1,44(sp)
   11e68:	0685                	c.addi	a3,1
   11e6a:	963a                	c.add	a2,a4
   11e6c:	c00c                	c.sw	a1,0(s0)
   11e6e:	c058                	c.sw	a4,4(s0)
   11e70:	c7b2                	c.swsp	a2,204(sp)
   11e72:	c5b6                	c.swsp	a3,200(sp)
   11e74:	459d                	c.li	a1,7
   11e76:	0421                	c.addi	s0,8
   11e78:	00d5d463          	bge	a1,a3,11e80 <_vfprintf_r+0x3ee>
   11e7c:	5fc0106f          	jal	zero,13478 <_vfprintf_r+0x19e6>
   11e80:	0007d463          	bge	a5,zero,11e88 <_vfprintf_r+0x3f6>
   11e84:	3d90106f          	jal	zero,13a5c <_vfprintf_r+0x1fca>
   11e88:	47e2                	c.lwsp	a5,24(sp)
   11e8a:	0685                	c.addi	a3,1
   11e8c:	c5b6                	c.swsp	a3,200(sp)
   11e8e:	963e                	c.add	a2,a5
   11e90:	c05c                	c.sw	a5,4(s0)
   11e92:	c7b2                	c.swsp	a2,204(sp)
   11e94:	01642023          	sw	s6,0(s0)
   11e98:	479d                	c.li	a5,7
   11e9a:	e0d7d0e3          	bge	a5,a3,11c9a <_vfprintf_r+0x208>
   11e9e:	45a2                	c.lwsp	a1,8(sp)
   11ea0:	4512                	c.lwsp	a0,4(sp)
   11ea2:	01d0                	c.addi4spn	a2,sp,196
   11ea4:	d01a                	c.swsp	t1,32(sp)
   11ea6:	ce76                	c.swsp	t4,28(sp)
   11ea8:	70d010ef          	jal	ra,13db4 <__sprint_r>
   11eac:	000516e3          	bne	a0,zero,126b8 <_vfprintf_r+0xc26>
   11eb0:	463e                	c.lwsp	a2,204(sp)
   11eb2:	4ef2                	c.lwsp	t4,28(sp)
   11eb4:	5302                	c.lwsp	t1,32(sp)
   11eb6:	8456                	c.mv	s0,s5
   11eb8:	b3d5                	c.j	11c9c <_vfprintf_r+0x20a>
   11eba:	66f9                	c.lui	a3,0x1e
   11ebc:	4b41                	c.li	s6,16
   11ebe:	47ae                	c.lwsp	a5,200(sp)
   11ec0:	abc68693          	addi	a3,a3,-1348 # 1dabc <blanks.1>
   11ec4:	054b5a63          	bge	s6,s4,11f18 <_vfprintf_r+0x486>
   11ec8:	8722                	c.mv	a4,s0
   11eca:	4ba2                	c.lwsp	s7,8(sp)
   11ecc:	8cda                	c.mv	s9,s6
   11ece:	4d9d                	c.li	s11,7
   11ed0:	8c76                	c.mv	s8,t4
   11ed2:	841a                	c.mv	s0,t1
   11ed4:	89b6                	c.mv	s3,a3
   11ed6:	a021                	c.j	11ede <_vfprintf_r+0x44c>
   11ed8:	1a41                	c.addi	s4,-16
   11eda:	034cdb63          	bge	s9,s4,11f10 <_vfprintf_r+0x47e>
   11ede:	0641                	c.addi	a2,16
   11ee0:	0785                	c.addi	a5,1 # 80000001 <__BSS_END__+0x7ffe15ad>
   11ee2:	01372023          	sw	s3,0(a4)
   11ee6:	01672223          	sw	s6,4(a4)
   11eea:	c7b2                	c.swsp	a2,204(sp)
   11eec:	c5be                	c.swsp	a5,200(sp)
   11eee:	0721                	c.addi	a4,8
   11ef0:	fefdd4e3          	bge	s11,a5,11ed8 <_vfprintf_r+0x446>
   11ef4:	4512                	c.lwsp	a0,4(sp)
   11ef6:	01d0                	c.addi4spn	a2,sp,196
   11ef8:	85de                	c.mv	a1,s7
   11efa:	6bb010ef          	jal	ra,13db4 <__sprint_r>
   11efe:	c119                	c.beqz	a0,11f04 <_vfprintf_r+0x472>
   11f00:	0220106f          	jal	zero,12f22 <_vfprintf_r+0x1490>
   11f04:	1a41                	c.addi	s4,-16
   11f06:	463e                	c.lwsp	a2,204(sp)
   11f08:	47ae                	c.lwsp	a5,200(sp)
   11f0a:	8756                	c.mv	a4,s5
   11f0c:	fd4cc9e3          	blt	s9,s4,11ede <_vfprintf_r+0x44c>
   11f10:	8322                	c.mv	t1,s0
   11f12:	8ee2                	c.mv	t4,s8
   11f14:	843a                	c.mv	s0,a4
   11f16:	86ce                	c.mv	a3,s3
   11f18:	9652                	c.add	a2,s4
   11f1a:	0785                	c.addi	a5,1
   11f1c:	c014                	c.sw	a3,0(s0)
   11f1e:	c7b2                	c.swsp	a2,204(sp)
   11f20:	c5be                	c.swsp	a5,200(sp)
   11f22:	01442223          	sw	s4,4(s0)
   11f26:	469d                	c.li	a3,7
   11f28:	d8f6d2e3          	bge	a3,a5,11cac <_vfprintf_r+0x21a>
   11f2c:	45a2                	c.lwsp	a1,8(sp)
   11f2e:	4512                	c.lwsp	a0,4(sp)
   11f30:	01d0                	c.addi4spn	a2,sp,196
   11f32:	d01a                	c.swsp	t1,32(sp)
   11f34:	ce76                	c.swsp	t4,28(sp)
   11f36:	67f010ef          	jal	ra,13db4 <__sprint_r>
   11f3a:	76051f63          	bne	a0,zero,126b8 <_vfprintf_r+0xc26>
   11f3e:	463e                	c.lwsp	a2,204(sp)
   11f40:	5302                	c.lwsp	t1,32(sp)
   11f42:	4ef2                	c.lwsp	t4,28(sp)
   11f44:	b3a5                	c.j	11cac <_vfprintf_r+0x21a>
   11f46:	47c2                	c.lwsp	a5,16(sp)
   11f48:	0a0103a3          	sb	zero,167(sp)
   11f4c:	8ece                	c.mv	t4,s3
   11f4e:	0007ab03          	lw	s6,0(a5)
   11f52:	835e                	c.mv	t1,s7
   11f54:	00478993          	addi	s3,a5,4
   11f58:	500b0ee3          	beq	s6,zero,12c74 <_vfprintf_r+0x11e2>
   11f5c:	580a4fe3          	blt	s4,zero,12cfa <_vfprintf_r+0x1268>
   11f60:	8652                	c.mv	a2,s4
   11f62:	4581                	c.li	a1,0
   11f64:	855a                	c.mv	a0,s6
   11f66:	d046                	c.swsp	a7,32(sp)
   11f68:	c876                	c.swsp	t4,16(sp)
   11f6a:	ce5e                	c.swsp	s7,28(sp)
   11f6c:	5dc020ef          	jal	ra,14548 <memchr>
   11f70:	ca2a                	c.swsp	a0,20(sp)
   11f72:	0a714783          	lbu	a5,167(sp)
   11f76:	4ec2                	c.lwsp	t4,16(sp)
   11f78:	4372                	c.lwsp	t1,28(sp)
   11f7a:	5882                	c.lwsp	a7,32(sp)
   11f7c:	e119                	c.bnez	a0,11f82 <_vfprintf_r+0x4f0>
   11f7e:	2810106f          	jal	zero,139fe <_vfprintf_r+0x1f6c>
   11f82:	41650db3          	sub	s11,a0,s6
   11f86:	fffdc713          	xori	a4,s11,-1
   11f8a:	877d                	c.srai	a4,0x1f
   11f8c:	00edfd33          	and	s10,s11,a4
   11f90:	580798e3          	bne	a5,zero,12d20 <_vfprintf_r+0x128e>
   11f94:	c84e                	c.swsp	s3,16(sp)
   11f96:	463e                	c.lwsp	a2,204(sp)
   11f98:	ca02                	c.swsp	zero,20(sp)
   11f9a:	d002                	c.swsp	zero,32(sp)
   11f9c:	ce02                	c.swsp	zero,28(sp)
   11f9e:	084cf993          	andi	s3,s9,132
   11fa2:	4a01                	c.li	s4,0
   11fa4:	4b81                	c.li	s7,0
   11fa6:	85b2                	c.mv	a1,a2
   11fa8:	c80991e3          	bne	s3,zero,11c2a <_vfprintf_r+0x198>
   11fac:	41a307b3          	sub	a5,t1,s10
   11fb0:	14f04ce3          	blt	zero,a5,12908 <_vfprintf_r+0xe76>
   11fb4:	0a714783          	lbu	a5,167(sp)
   11fb8:	c6079ce3          	bne	a5,zero,11c30 <_vfprintf_r+0x19e>
   11fbc:	41ba0a33          	sub	s4,s4,s11
   11fc0:	cb405de3          	bge	zero,s4,11c7a <_vfprintf_r+0x1e8>
   11fc4:	67f9                	c.lui	a5,0x1e
   11fc6:	45ae                	c.lwsp	a1,200(sp)
   11fc8:	aac78993          	addi	s3,a5,-1364 # 1daac <zeroes.0>
   11fcc:	05495b63          	bge	s2,s4,12022 <_vfprintf_r+0x590>
   11fd0:	87a2                	c.mv	a5,s0
   11fd2:	8c52                	c.mv	s8,s4
   11fd4:	844e                	c.mv	s0,s3
   11fd6:	469d                	c.li	a3,7
   11fd8:	d876                	c.swsp	t4,48(sp)
   11fda:	8a46                	c.mv	s4,a7
   11fdc:	899a                	c.mv	s3,t1
   11fde:	a021                	c.j	11fe6 <_vfprintf_r+0x554>
   11fe0:	1c41                	c.addi	s8,-16
   11fe2:	03895a63          	bge	s2,s8,12016 <_vfprintf_r+0x584>
   11fe6:	0641                	c.addi	a2,16
   11fe8:	0585                	c.addi	a1,1 # 2001 <exit-0xe0b3>
   11fea:	c380                	c.sw	s0,0(a5)
   11fec:	0127a223          	sw	s2,4(a5)
   11ff0:	c7b2                	c.swsp	a2,204(sp)
   11ff2:	c5ae                	c.swsp	a1,200(sp)
   11ff4:	07a1                	c.addi	a5,8
   11ff6:	feb6d5e3          	bge	a3,a1,11fe0 <_vfprintf_r+0x54e>
   11ffa:	45a2                	c.lwsp	a1,8(sp)
   11ffc:	4512                	c.lwsp	a0,4(sp)
   11ffe:	01d0                	c.addi4spn	a2,sp,196
   12000:	5b5010ef          	jal	ra,13db4 <__sprint_r>
   12004:	6a051a63          	bne	a0,zero,126b8 <_vfprintf_r+0xc26>
   12008:	1c41                	c.addi	s8,-16
   1200a:	463e                	c.lwsp	a2,204(sp)
   1200c:	45ae                	c.lwsp	a1,200(sp)
   1200e:	87d6                	c.mv	a5,s5
   12010:	469d                	c.li	a3,7
   12012:	fd894ae3          	blt	s2,s8,11fe6 <_vfprintf_r+0x554>
   12016:	5ec2                	c.lwsp	t4,48(sp)
   12018:	834e                	c.mv	t1,s3
   1201a:	88d2                	c.mv	a7,s4
   1201c:	89a2                	c.mv	s3,s0
   1201e:	8a62                	c.mv	s4,s8
   12020:	843e                	c.mv	s0,a5
   12022:	9652                	c.add	a2,s4
   12024:	0585                	c.addi	a1,1
   12026:	01342023          	sw	s3,0(s0)
   1202a:	01442223          	sw	s4,4(s0)
   1202e:	c7b2                	c.swsp	a2,204(sp)
   12030:	c5ae                	c.swsp	a1,200(sp)
   12032:	479d                	c.li	a5,7
   12034:	0421                	c.addi	s0,8
   12036:	c4b7d2e3          	bge	a5,a1,11c7a <_vfprintf_r+0x1e8>
   1203a:	45a2                	c.lwsp	a1,8(sp)
   1203c:	4512                	c.lwsp	a0,4(sp)
   1203e:	01d0                	c.addi4spn	a2,sp,196
   12040:	c0c6                	c.swsp	a7,64(sp)
   12042:	de1a                	c.swsp	t1,60(sp)
   12044:	d876                	c.swsp	t4,48(sp)
   12046:	56f010ef          	jal	ra,13db4 <__sprint_r>
   1204a:	66051763          	bne	a0,zero,126b8 <_vfprintf_r+0xc26>
   1204e:	100cf793          	andi	a5,s9,256
   12052:	463e                	c.lwsp	a2,204(sp)
   12054:	4886                	c.lwsp	a7,64(sp)
   12056:	5372                	c.lwsp	t1,60(sp)
   12058:	5ec2                	c.lwsp	t4,48(sp)
   1205a:	8456                	c.mv	s0,s5
   1205c:	c20783e3          	beq	a5,zero,11c82 <_vfprintf_r+0x1f0>
   12060:	06500793          	addi	a5,zero,101
   12064:	6b17d363          	bge	a5,a7,1270a <_vfprintf_r+0xc78>
   12068:	454e                	c.lwsp	a0,208(sp)
   1206a:	45de                	c.lwsp	a1,212(sp)
   1206c:	46ee                	c.lwsp	a3,216(sp)
   1206e:	47fe                	c.lwsp	a5,220(sp)
   12070:	c92a                	c.swsp	a0,144(sp)
   12072:	cb2e                	c.swsp	a1,148(sp)
   12074:	0908                	c.addi4spn	a0,sp,144
   12076:	010c                	c.addi4spn	a1,sp,128
   12078:	c0b2                	c.swsp	a2,64(sp)
   1207a:	de1a                	c.swsp	t1,60(sp)
   1207c:	d876                	c.swsp	t4,48(sp)
   1207e:	c102                	c.swsp	zero,128(sp)
   12080:	c302                	c.swsp	zero,132(sp)
   12082:	c502                	c.swsp	zero,136(sp)
   12084:	c702                	c.swsp	zero,140(sp)
   12086:	cd36                	c.swsp	a3,152(sp)
   12088:	cf3e                	c.swsp	a5,156(sp)
   1208a:	58d080ef          	jal	ra,1ae16 <__eqtf2>
   1208e:	5ec2                	c.lwsp	t4,48(sp)
   12090:	5372                	c.lwsp	t1,60(sp)
   12092:	4606                	c.lwsp	a2,64(sp)
   12094:	76051163          	bne	a0,zero,127f6 <_vfprintf_r+0xd64>
   12098:	47ae                	c.lwsp	a5,200(sp)
   1209a:	66f5                	c.lui	a3,0x1d
   1209c:	35868693          	addi	a3,a3,856 # 1d358 <__extenddftf2+0x8c2>
   120a0:	0605                	c.addi	a2,1
   120a2:	0785                	c.addi	a5,1
   120a4:	4585                	c.li	a1,1
   120a6:	c014                	c.sw	a3,0(s0)
   120a8:	c04c                	c.sw	a1,4(s0)
   120aa:	c7b2                	c.swsp	a2,204(sp)
   120ac:	c5be                	c.swsp	a5,200(sp)
   120ae:	469d                	c.li	a3,7
   120b0:	0421                	c.addi	s0,8
   120b2:	64f6c9e3          	blt	a3,a5,12f04 <_vfprintf_r+0x1472>
   120b6:	57ba                	c.lwsp	a5,172(sp)
   120b8:	4762                	c.lwsp	a4,24(sp)
   120ba:	16e7d9e3          	bge	a5,a4,12a2c <_vfprintf_r+0xf9a>
   120be:	47ae                	c.lwsp	a5,200(sp)
   120c0:	5712                	c.lwsp	a4,36(sp)
   120c2:	56b2                	c.lwsp	a3,44(sp)
   120c4:	0785                	c.addi	a5,1
   120c6:	963a                	c.add	a2,a4
   120c8:	c014                	c.sw	a3,0(s0)
   120ca:	c058                	c.sw	a4,4(s0)
   120cc:	c7b2                	c.swsp	a2,204(sp)
   120ce:	c5be                	c.swsp	a5,200(sp)
   120d0:	469d                	c.li	a3,7
   120d2:	0421                	c.addi	s0,8
   120d4:	38f6c1e3          	blt	a3,a5,12c56 <_vfprintf_r+0x11c4>
   120d8:	47e2                	c.lwsp	a5,24(sp)
   120da:	fff78a13          	addi	s4,a5,-1
   120de:	bb405fe3          	bge	zero,s4,11c9c <_vfprintf_r+0x20a>
   120e2:	67f9                	c.lui	a5,0x1e
   120e4:	4b41                	c.li	s6,16
   120e6:	46ae                	c.lwsp	a3,200(sp)
   120e8:	aac78993          	addi	s3,a5,-1364 # 1daac <zeroes.0>
   120ec:	654b52e3          	bge	s6,s4,12f30 <_vfprintf_r+0x149e>
   120f0:	87a2                	c.mv	a5,s0
   120f2:	8bce                	c.mv	s7,s3
   120f4:	4c22                	c.lwsp	s8,8(sp)
   120f6:	885a                	c.mv	a6,s6
   120f8:	4d9d                	c.li	s11,7
   120fa:	8476                	c.mv	s0,t4
   120fc:	899a                	c.mv	s3,t1
   120fe:	a021                	c.j	12106 <_vfprintf_r+0x674>
   12100:	1a41                	c.addi	s4,-16
   12102:	634853e3          	bge	a6,s4,12f28 <_vfprintf_r+0x1496>
   12106:	0641                	c.addi	a2,16
   12108:	0685                	c.addi	a3,1
   1210a:	0177a023          	sw	s7,0(a5)
   1210e:	0167a223          	sw	s6,4(a5)
   12112:	c7b2                	c.swsp	a2,204(sp)
   12114:	c5b6                	c.swsp	a3,200(sp)
   12116:	07a1                	c.addi	a5,8
   12118:	feddd4e3          	bge	s11,a3,12100 <_vfprintf_r+0x66e>
   1211c:	4512                	c.lwsp	a0,4(sp)
   1211e:	01d0                	c.addi4spn	a2,sp,196
   12120:	85e2                	c.mv	a1,s8
   12122:	493010ef          	jal	ra,13db4 <__sprint_r>
   12126:	c119                	c.beqz	a0,1212c <_vfprintf_r+0x69a>
   12128:	0190106f          	jal	zero,13940 <_vfprintf_r+0x1eae>
   1212c:	463e                	c.lwsp	a2,204(sp)
   1212e:	46ae                	c.lwsp	a3,200(sp)
   12130:	87d6                	c.mv	a5,s5
   12132:	4841                	c.li	a6,16
   12134:	b7f1                	c.j	12100 <_vfprintf_r+0x66e>
   12136:	4742                	c.lwsp	a4,16(sp)
   12138:	8ece                	c.mv	t4,s3
   1213a:	835e                	c.mv	t1,s7
   1213c:	431c                	c.lw	a5,0(a4)
   1213e:	4d85                	c.li	s11,1
   12140:	0a0103a3          	sb	zero,167(sp)
   12144:	12f10623          	sb	a5,300(sp)
   12148:	00470793          	addi	a5,a4,4
   1214c:	c83e                	c.swsp	a5,16(sp)
   1214e:	b4c1                	c.j	11c0e <_vfprintf_r+0x17c>
   12150:	020cf793          	andi	a5,s9,32
   12154:	8ece                	c.mv	t4,s3
   12156:	835e                	c.mv	t1,s7
   12158:	efb1                	c.bnez	a5,121b4 <_vfprintf_r+0x722>
   1215a:	4742                	c.lwsp	a4,16(sp)
   1215c:	010cf793          	andi	a5,s9,16
   12160:	00072d03          	lw	s10,0(a4)
   12164:	0711                	c.addi	a4,4
   12166:	c399                	c.beqz	a5,1216c <_vfprintf_r+0x6da>
   12168:	1730106f          	jal	zero,13ada <_vfprintf_r+0x2048>
   1216c:	040cf793          	andi	a5,s9,64
   12170:	66078de3          	beq	a5,zero,12fea <_vfprintf_r+0x1558>
   12174:	0d42                	c.slli	s10,0x10
   12176:	410d5d13          	srai	s10,s10,0x10
   1217a:	41fd5d93          	srai	s11,s10,0x1f
   1217e:	c83a                	c.swsp	a4,16(sp)
   12180:	876e                	c.mv	a4,s11
   12182:	04074563          	blt	a4,zero,121cc <_vfprintf_r+0x73a>
   12186:	060a4363          	blt	s4,zero,121ec <_vfprintf_r+0x75a>
   1218a:	01bd67b3          	or	a5,s10,s11
   1218e:	f7fcfc93          	andi	s9,s9,-129
   12192:	efa9                	c.bnez	a5,121ec <_vfprintf_r+0x75a>
   12194:	000a1463          	bne	s4,zero,1219c <_vfprintf_r+0x70a>
   12198:	1fc0106f          	jal	zero,13394 <_vfprintf_r+0x1902>
   1219c:	03000793          	addi	a5,zero,48
   121a0:	a8b9                	c.j	121fe <_vfprintf_r+0x76c>
   121a2:	020cf793          	andi	a5,s9,32
   121a6:	8ece                	c.mv	t4,s3
   121a8:	835e                	c.mv	t1,s7
   121aa:	010cee13          	ori	t3,s9,16
   121ae:	10078ae3          	beq	a5,zero,12ac2 <_vfprintf_r+0x1030>
   121b2:	8cf2                	c.mv	s9,t3
   121b4:	47c2                	c.lwsp	a5,16(sp)
   121b6:	079d                	c.addi	a5,7
   121b8:	9be1                	c.andi	a5,-8
   121ba:	43d8                	c.lw	a4,4(a5)
   121bc:	00878693          	addi	a3,a5,8
   121c0:	c836                	c.swsp	a3,16(sp)
   121c2:	0007ad03          	lw	s10,0(a5)
   121c6:	8dba                	c.mv	s11,a4
   121c8:	fa075fe3          	bge	a4,zero,12186 <_vfprintf_r+0x6f4>
   121cc:	02d00713          	addi	a4,zero,45
   121d0:	01a037b3          	sltu	a5,zero,s10
   121d4:	41b00db3          	sub	s11,zero,s11
   121d8:	0ae103a3          	sb	a4,167(sp)
   121dc:	40fd8db3          	sub	s11,s11,a5
   121e0:	41a00d33          	sub	s10,zero,s10
   121e4:	000a4463          	blt	s4,zero,121ec <_vfprintf_r+0x75a>
   121e8:	f7fcfc93          	andi	s9,s9,-129
   121ec:	140d9c63          	bne	s11,zero,12344 <_vfprintf_r+0x8b2>
   121f0:	47a5                	c.li	a5,9
   121f2:	15a7e963          	bltu	a5,s10,12344 <_vfprintf_r+0x8b2>
   121f6:	030d0793          	addi	a5,s10,48
   121fa:	0ff7f793          	andi	a5,a5,255
   121fe:	18f107a3          	sb	a5,399(sp)
   12202:	8d52                	c.mv	s10,s4
   12204:	01404363          	blt	zero,s4,1220a <_vfprintf_r+0x778>
   12208:	4d05                	c.li	s10,1
   1220a:	0a714783          	lbu	a5,167(sp)
   1220e:	4d85                	c.li	s11,1
   12210:	18f10b13          	addi	s6,sp,399
   12214:	c3d9                	c.beqz	a5,1229a <_vfprintf_r+0x808>
   12216:	0d05                	c.addi	s10,1
   12218:	ca02                	c.swsp	zero,20(sp)
   1221a:	d002                	c.swsp	zero,32(sp)
   1221c:	ce02                	c.swsp	zero,28(sp)
   1221e:	4b81                	c.li	s7,0
   12220:	bafd                	c.j	11c1e <_vfprintf_r+0x18c>
   12222:	47c2                	c.lwsp	a5,16(sp)
   12224:	0007ab83          	lw	s7,0(a5)
   12228:	0791                	c.addi	a5,4
   1222a:	000bd7e3          	bge	s7,zero,12a38 <_vfprintf_r+0xfa6>
   1222e:	41700bb3          	sub	s7,zero,s7
   12232:	c83e                	c.swsp	a5,16(sp)
   12234:	0009c883          	lbu	a7,0(s3)
   12238:	004cec93          	ori	s9,s9,4
   1223c:	bab5                	c.j	11bb8 <_vfprintf_r+0x126>
   1223e:	0009c883          	lbu	a7,0(s3)
   12242:	008cec93          	ori	s9,s9,8
   12246:	ba8d                	c.j	11bb8 <_vfprintf_r+0x126>
   12248:	020cf793          	andi	a5,s9,32
   1224c:	8ece                	c.mv	t4,s3
   1224e:	835e                	c.mv	t1,s7
   12250:	010ce813          	ori	a6,s9,16
   12254:	04078ee3          	beq	a5,zero,12ab0 <_vfprintf_r+0x101e>
   12258:	47c2                	c.lwsp	a5,16(sp)
   1225a:	00778713          	addi	a4,a5,7
   1225e:	9b61                	c.andi	a4,-8
   12260:	00870793          	addi	a5,a4,8
   12264:	c83e                	c.swsp	a5,16(sp)
   12266:	4350                	c.lw	a2,4(a4)
   12268:	431c                	c.lw	a5,0(a4)
   1226a:	0a0103a3          	sb	zero,167(sp)
   1226e:	bff87c93          	andi	s9,a6,-1025
   12272:	020a4963          	blt	s4,zero,122a4 <_vfprintf_r+0x812>
   12276:	00c7e733          	or	a4,a5,a2
   1227a:	b7f87c93          	andi	s9,a6,-1153
   1227e:	e31d                	c.bnez	a4,122a4 <_vfprintf_r+0x812>
   12280:	020a1263          	bne	s4,zero,122a4 <_vfprintf_r+0x812>
   12284:	00187d93          	andi	s11,a6,1
   12288:	3c0d89e3          	beq	s11,zero,12e5a <_vfprintf_r+0x13c8>
   1228c:	03000793          	addi	a5,zero,48
   12290:	18f107a3          	sb	a5,399(sp)
   12294:	8d6e                	c.mv	s10,s11
   12296:	18f10b13          	addi	s6,sp,399
   1229a:	ca02                	c.swsp	zero,20(sp)
   1229c:	d002                	c.swsp	zero,32(sp)
   1229e:	ce02                	c.swsp	zero,28(sp)
   122a0:	4b81                	c.li	s7,0
   122a2:	bab5                	c.j	11c1e <_vfprintf_r+0x18c>
   122a4:	19010b13          	addi	s6,sp,400
   122a8:	01d61693          	slli	a3,a2,0x1d
   122ac:	0077f713          	andi	a4,a5,7
   122b0:	838d                	c.srli	a5,0x3
   122b2:	85da                	c.mv	a1,s6
   122b4:	03070713          	addi	a4,a4,48
   122b8:	8fd5                	c.or	a5,a3
   122ba:	820d                	c.srli	a2,0x3
   122bc:	00c7e6b3          	or	a3,a5,a2
   122c0:	feeb0fa3          	sb	a4,-1(s6)
   122c4:	1b7d                	c.addi	s6,-1
   122c6:	f2ed                	c.bnez	a3,122a8 <_vfprintf_r+0x816>
   122c8:	001cf793          	andi	a5,s9,1
   122cc:	c78d                	c.beqz	a5,122f6 <_vfprintf_r+0x864>
   122ce:	03000793          	addi	a5,zero,48
   122d2:	02f70263          	beq	a4,a5,122f6 <_vfprintf_r+0x864>
   122d6:	15f9                	c.addi	a1,-2
   122d8:	fefb0fa3          	sb	a5,-1(s6)
   122dc:	0b1c                	c.addi4spn	a5,sp,400
   122de:	40b78db3          	sub	s11,a5,a1
   122e2:	8d52                	c.mv	s10,s4
   122e4:	01ba5363          	bge	s4,s11,122ea <_vfprintf_r+0x858>
   122e8:	8d6e                	c.mv	s10,s11
   122ea:	8b2e                	c.mv	s6,a1
   122ec:	ca02                	c.swsp	zero,20(sp)
   122ee:	d002                	c.swsp	zero,32(sp)
   122f0:	ce02                	c.swsp	zero,28(sp)
   122f2:	4b81                	c.li	s7,0
   122f4:	b22d                	c.j	11c1e <_vfprintf_r+0x18c>
   122f6:	0b1c                	c.addi4spn	a5,sp,400
   122f8:	41678db3          	sub	s11,a5,s6
   122fc:	8d52                	c.mv	s10,s4
   122fe:	f9ba5ee3          	bge	s4,s11,1229a <_vfprintf_r+0x808>
   12302:	8d6e                	c.mv	s10,s11
   12304:	ca02                	c.swsp	zero,20(sp)
   12306:	d002                	c.swsp	zero,32(sp)
   12308:	ce02                	c.swsp	zero,28(sp)
   1230a:	4b81                	c.li	s7,0
   1230c:	ba09                	c.j	11c1e <_vfprintf_r+0x18c>
   1230e:	020cf793          	andi	a5,s9,32
   12312:	8ece                	c.mv	t4,s3
   12314:	835e                	c.mv	t1,s7
   12316:	010cee13          	ori	t3,s9,16
   1231a:	10079963          	bne	a5,zero,1242c <_vfprintf_r+0x99a>
   1231e:	47c2                	c.lwsp	a5,16(sp)
   12320:	00478713          	addi	a4,a5,4
   12324:	47c2                	c.lwsp	a5,16(sp)
   12326:	0a0103a3          	sb	zero,167(sp)
   1232a:	4d81                	c.li	s11,0
   1232c:	0007ad03          	lw	s10,0(a5)
   12330:	540a47e3          	blt	s4,zero,1307e <_vfprintf_r+0x15ec>
   12334:	f7fe7c93          	andi	s9,t3,-129
   12338:	760d0463          	beq	s10,zero,12aa0 <_vfprintf_r+0x100e>
   1233c:	c83a                	c.swsp	a4,16(sp)
   1233e:	47a5                	c.li	a5,9
   12340:	eba7fbe3          	bgeu	a5,s10,121f6 <_vfprintf_r+0x764>
   12344:	ccccd737          	lui	a4,0xccccd
   12348:	883a                	c.mv	a6,a4
   1234a:	ccc80813          	addi	a6,a6,-820
   1234e:	ccd70713          	addi	a4,a4,-819 # cccccccd <__BSS_END__+0xcccae279>
   12352:	400cff13          	andi	t5,s9,1024
   12356:	4581                	c.li	a1,0
   12358:	0b10                	c.addi4spn	a2,sp,400
   1235a:	0ff00993          	addi	s3,zero,255
   1235e:	8bf6                	c.mv	s7,t4
   12360:	8c1a                	c.mv	s8,t1
   12362:	a8b9                	c.j	123c0 <_vfprintf_r+0x92e>
   12364:	57a2                	c.lwsp	a5,40(sp)
   12366:	0007c783          	lbu	a5,0(a5)
   1236a:	2ab782e3          	beq	a5,a1,12e0e <_vfprintf_r+0x137c>
   1236e:	8e6a                	c.mv	t3,s10
   12370:	856e                	c.mv	a0,s11
   12372:	865a                	c.mv	a2,s6
   12374:	01bd07b3          	add	a5,s10,s11
   12378:	01a7b6b3          	sltu	a3,a5,s10
   1237c:	97b6                	c.add	a5,a3
   1237e:	02e7b6b3          	mulhu	a3,a5,a4
   12382:	0026df93          	srli	t6,a3,0x2
   12386:	9af1                	c.andi	a3,-4
   12388:	96fe                	c.add	a3,t6
   1238a:	8f95                	c.sub	a5,a3
   1238c:	40fd07b3          	sub	a5,s10,a5
   12390:	00fd36b3          	sltu	a3,s10,a5
   12394:	40dd86b3          	sub	a3,s11,a3
   12398:	030782b3          	mul	t0,a5,a6
   1239c:	02e686b3          	mul	a3,a3,a4
   123a0:	02e7bfb3          	mulhu	t6,a5,a4
   123a4:	9696                	c.add	a3,t0
   123a6:	02e787b3          	mul	a5,a5,a4
   123aa:	96fe                	c.add	a3,t6
   123ac:	01f69f93          	slli	t6,a3,0x1f
   123b0:	0016dd93          	srli	s11,a3,0x1
   123b4:	8385                	c.srli	a5,0x1
   123b6:	00ffed33          	or	s10,t6,a5
   123ba:	e119                	c.bnez	a0,123c0 <_vfprintf_r+0x92e>
   123bc:	5040106f          	jal	zero,138c0 <_vfprintf_r+0x1e2e>
   123c0:	01bd07b3          	add	a5,s10,s11
   123c4:	01a7b6b3          	sltu	a3,a5,s10
   123c8:	96be                	c.add	a3,a5
   123ca:	02e6b533          	mulhu	a0,a3,a4
   123ce:	0585                	c.addi	a1,1
   123d0:	fff60b13          	addi	s6,a2,-1
   123d4:	00255e13          	srli	t3,a0,0x2
   123d8:	9971                	c.andi	a0,-4
   123da:	9572                	c.add	a0,t3
   123dc:	8e89                	c.sub	a3,a0
   123de:	40dd06b3          	sub	a3,s10,a3
   123e2:	00dd3533          	sltu	a0,s10,a3
   123e6:	40ad8533          	sub	a0,s11,a0
   123ea:	02e6be33          	mulhu	t3,a3,a4
   123ee:	02e50533          	mul	a0,a0,a4
   123f2:	02e686b3          	mul	a3,a3,a4
   123f6:	9572                	c.add	a0,t3
   123f8:	057e                	c.slli	a0,0x1f
   123fa:	8285                	c.srli	a3,0x1
   123fc:	8ec9                	c.or	a3,a0
   123fe:	00269513          	slli	a0,a3,0x2
   12402:	96aa                	c.add	a3,a0
   12404:	0686                	c.slli	a3,0x1
   12406:	40dd06b3          	sub	a3,s10,a3
   1240a:	03068693          	addi	a3,a3,48
   1240e:	fed60fa3          	sb	a3,-1(a2)
   12412:	f40f19e3          	bne	t5,zero,12364 <_vfprintf_r+0x8d2>
   12416:	8e6a                	c.mv	t3,s10
   12418:	856e                	c.mv	a0,s11
   1241a:	865a                	c.mv	a2,s6
   1241c:	bfb1                	c.j	12378 <_vfprintf_r+0x8e6>
   1241e:	020cf793          	andi	a5,s9,32
   12422:	8ece                	c.mv	t4,s3
   12424:	835e                	c.mv	t1,s7
   12426:	64078463          	beq	a5,zero,12a6e <_vfprintf_r+0xfdc>
   1242a:	8e66                	c.mv	t3,s9
   1242c:	47c2                	c.lwsp	a5,16(sp)
   1242e:	0a0103a3          	sb	zero,167(sp)
   12432:	8cf2                	c.mv	s9,t3
   12434:	079d                	c.addi	a5,7
   12436:	9be1                	c.andi	a5,-8
   12438:	00878713          	addi	a4,a5,8
   1243c:	c83a                	c.swsp	a4,16(sp)
   1243e:	0007ad03          	lw	s10,0(a5)
   12442:	0047ad83          	lw	s11,4(a5)
   12446:	da0a43e3          	blt	s4,zero,121ec <_vfprintf_r+0x75a>
   1244a:	01bd67b3          	or	a5,s10,s11
   1244e:	f7fe7c93          	andi	s9,t3,-129
   12452:	d8079de3          	bne	a5,zero,121ec <_vfprintf_r+0x75a>
   12456:	080a08e3          	beq	s4,zero,12ce6 <_vfprintf_r+0x1254>
   1245a:	4d01                	c.li	s10,0
   1245c:	bb69                	c.j	121f6 <_vfprintf_r+0x764>
   1245e:	0009c883          	lbu	a7,0(s3)
   12462:	06800793          	addi	a5,zero,104
   12466:	7ef88163          	beq	a7,a5,12c48 <_vfprintf_r+0x11b6>
   1246a:	040cec93          	ori	s9,s9,64
   1246e:	f4aff06f          	jal	zero,11bb8 <_vfprintf_r+0x126>
   12472:	46c2                	c.lwsp	a3,16(sp)
   12474:	020cf793          	andi	a5,s9,32
   12478:	8ece                	c.mv	t4,s3
   1247a:	00468713          	addi	a4,a3,4
   1247e:	5c079663          	bne	a5,zero,12a4a <_vfprintf_r+0xfb8>
   12482:	010cf793          	andi	a5,s9,16
   12486:	300799e3          	bne	a5,zero,12f98 <_vfprintf_r+0x1506>
   1248a:	040cf793          	andi	a5,s9,64
   1248e:	c399                	c.beqz	a5,12494 <_vfprintf_r+0xa02>
   12490:	7af0006f          	jal	zero,1343e <_vfprintf_r+0x19ac>
   12494:	200cfe13          	andi	t3,s9,512
   12498:	300e00e3          	beq	t3,zero,12f98 <_vfprintf_r+0x1506>
   1249c:	47c2                	c.lwsp	a5,16(sp)
   1249e:	46b2                	c.lwsp	a3,12(sp)
   124a0:	c83a                	c.swsp	a4,16(sp)
   124a2:	439c                	c.lw	a5,0(a5)
   124a4:	00d78023          	sb	a3,0(a5)
   124a8:	8b76                	c.mv	s6,t4
   124aa:	829ff06f          	jal	zero,11cd2 <_vfprintf_r+0x240>
   124ae:	0009c883          	lbu	a7,0(s3)
   124b2:	06c00793          	addi	a5,zero,108
   124b6:	78f88263          	beq	a7,a5,12c3a <_vfprintf_r+0x11a8>
   124ba:	010cec93          	ori	s9,s9,16
   124be:	efaff06f          	jal	zero,11bb8 <_vfprintf_r+0x126>
   124c2:	4742                	c.lwsp	a4,16(sp)
   124c4:	67a1                	c.lui	a5,0x8
   124c6:	83078793          	addi	a5,a5,-2000 # 7830 <exit-0x8884>
   124ca:	0af11423          	sh	a5,168(sp)
   124ce:	0a0103a3          	sb	zero,167(sp)
   124d2:	00470793          	addi	a5,a4,4
   124d6:	8ece                	c.mv	t4,s3
   124d8:	4318                	c.lw	a4,0(a4)
   124da:	835e                	c.mv	t1,s7
   124dc:	4681                	c.li	a3,0
   124de:	600a4263          	blt	s4,zero,12ae2 <_vfprintf_r+0x1050>
   124e2:	f7fcf813          	andi	a6,s9,-129
   124e6:	00286813          	ori	a6,a6,2
   124ea:	2a071ee3          	bne	a4,zero,12fa6 <_vfprintf_r+0x1514>
   124ee:	6c0a0ae3          	beq	s4,zero,133c2 <_vfprintf_r+0x1930>
   124f2:	03000713          	addi	a4,zero,48
   124f6:	c83e                	c.swsp	a5,16(sp)
   124f8:	8cc2                	c.mv	s9,a6
   124fa:	18e107a3          	sb	a4,399(sp)
   124fe:	8d52                	c.mv	s10,s4
   12500:	ca02                	c.swsp	zero,20(sp)
   12502:	4d85                	c.li	s11,1
   12504:	d002                	c.swsp	zero,32(sp)
   12506:	ce02                	c.swsp	zero,28(sp)
   12508:	4b81                	c.li	s7,0
   1250a:	07800893          	addi	a7,zero,120
   1250e:	18f10b13          	addi	s6,sp,399
   12512:	4f81                	c.li	t6,0
   12514:	ad35                	c.j	12b50 <_vfprintf_r+0x10be>
   12516:	020cf793          	andi	a5,s9,32
   1251a:	8ece                	c.mv	t4,s3
   1251c:	835e                	c.mv	t1,s7
   1251e:	5a079f63          	bne	a5,zero,12adc <_vfprintf_r+0x104a>
   12522:	4742                	c.lwsp	a4,16(sp)
   12524:	010cf693          	andi	a3,s9,16
   12528:	431c                	c.lw	a5,0(a4)
   1252a:	0711                	c.addi	a4,4
   1252c:	c299                	c.beqz	a3,12532 <_vfprintf_r+0xaa0>
   1252e:	5a00106f          	jal	zero,13ace <_vfprintf_r+0x203c>
   12532:	040cf693          	andi	a3,s9,64
   12536:	28068fe3          	beq	a3,zero,12fd4 <_vfprintf_r+0x1542>
   1253a:	07c2                	c.slli	a5,0x10
   1253c:	83c1                	c.srli	a5,0x10
   1253e:	c83a                	c.swsp	a4,16(sp)
   12540:	8866                	c.mv	a6,s9
   12542:	4601                	c.li	a2,0
   12544:	b31d                	c.j	1226a <_vfprintf_r+0x7d8>
   12546:	4c12                	c.lwsp	s8,4(sp)
   12548:	8562                	c.mv	a0,s8
   1254a:	10e020ef          	jal	ra,14658 <_localeconv_r>
   1254e:	415c                	c.lw	a5,4(a0)
   12550:	853e                	c.mv	a0,a5
   12552:	dc3e                	c.swsp	a5,56(sp)
   12554:	f15fe0ef          	jal	ra,11468 <strlen>
   12558:	87aa                	c.mv	a5,a0
   1255a:	8562                	c.mv	a0,s8
   1255c:	c2be                	c.swsp	a5,68(sp)
   1255e:	8c3e                	c.mv	s8,a5
   12560:	0f8020ef          	jal	ra,14658 <_localeconv_r>
   12564:	4518                	c.lw	a4,8(a0)
   12566:	0009c883          	lbu	a7,0(s3)
   1256a:	d43a                	c.swsp	a4,40(sp)
   1256c:	e40c0663          	beq	s8,zero,11bb8 <_vfprintf_r+0x126>
   12570:	e4070463          	beq	a4,zero,11bb8 <_vfprintf_r+0x126>
   12574:	00074783          	lbu	a5,0(a4)
   12578:	e4078063          	beq	a5,zero,11bb8 <_vfprintf_r+0x126>
   1257c:	400cec93          	ori	s9,s9,1024
   12580:	e38ff06f          	jal	zero,11bb8 <_vfprintf_r+0x126>
   12584:	0009c883          	lbu	a7,0(s3)
   12588:	001cec93          	ori	s9,s9,1
   1258c:	e2cff06f          	jal	zero,11bb8 <_vfprintf_r+0x126>
   12590:	0a714783          	lbu	a5,167(sp)
   12594:	0009c883          	lbu	a7,0(s3)
   12598:	e2079063          	bne	a5,zero,11bb8 <_vfprintf_r+0x126>
   1259c:	02000793          	addi	a5,zero,32
   125a0:	0af103a3          	sb	a5,167(sp)
   125a4:	e14ff06f          	jal	zero,11bb8 <_vfprintf_r+0x126>
   125a8:	0009c883          	lbu	a7,0(s3)
   125ac:	080cec93          	ori	s9,s9,128
   125b0:	e08ff06f          	jal	zero,11bb8 <_vfprintf_r+0x126>
   125b4:	02b00793          	addi	a5,zero,43
   125b8:	0009c883          	lbu	a7,0(s3)
   125bc:	0af103a3          	sb	a5,167(sp)
   125c0:	df8ff06f          	jal	zero,11bb8 <_vfprintf_r+0x126>
   125c4:	0009c883          	lbu	a7,0(s3)
   125c8:	02a00793          	addi	a5,zero,42
   125cc:	00198693          	addi	a3,s3,1
   125d0:	00f89463          	bne	a7,a5,125d8 <_vfprintf_r+0xb46>
   125d4:	6e40106f          	jal	zero,13cb8 <_vfprintf_r+0x2226>
   125d8:	4625                	c.li	a2,9
   125da:	fd088793          	addi	a5,a7,-48
   125de:	4a01                	c.li	s4,0
   125e0:	02f66063          	bltu	a2,a5,12600 <_vfprintf_r+0xb6e>
   125e4:	002a1713          	slli	a4,s4,0x2
   125e8:	0006c883          	lbu	a7,0(a3)
   125ec:	9a3a                	c.add	s4,a4
   125ee:	0a06                	c.slli	s4,0x1
   125f0:	9a3e                	c.add	s4,a5
   125f2:	fd088793          	addi	a5,a7,-48
   125f6:	0685                	c.addi	a3,1
   125f8:	fef676e3          	bgeu	a2,a5,125e4 <_vfprintf_r+0xb52>
   125fc:	5a0a4963          	blt	s4,zero,12bae <_vfprintf_r+0x111c>
   12600:	89b6                	c.mv	s3,a3
   12602:	db8ff06f          	jal	zero,11bba <_vfprintf_r+0x128>
   12606:	41a306b3          	sub	a3,t1,s10
   1260a:	e6d05463          	bge	zero,a3,11c72 <_vfprintf_r+0x1e0>
   1260e:	67f9                	c.lui	a5,0x1e
   12610:	4f41                	c.li	t5,16
   12612:	45ae                	c.lwsp	a1,200(sp)
   12614:	aac78993          	addi	s3,a5,-1364 # 1daac <zeroes.0>
   12618:	04df5c63          	bge	t5,a3,12670 <_vfprintf_r+0xbde>
   1261c:	87a2                	c.mv	a5,s0
   1261e:	82fa                	c.mv	t0,t5
   12620:	4f9d                	c.li	t6,7
   12622:	8c76                	c.mv	s8,t4
   12624:	d81a                	c.swsp	t1,48(sp)
   12626:	8436                	c.mv	s0,a3
   12628:	de46                	c.swsp	a7,60(sp)
   1262a:	a021                	c.j	12632 <_vfprintf_r+0xba0>
   1262c:	1441                	c.addi	s0,-16
   1262e:	0282dc63          	bge	t0,s0,12666 <_vfprintf_r+0xbd4>
   12632:	0641                	c.addi	a2,16
   12634:	0585                	c.addi	a1,1
   12636:	0137a023          	sw	s3,0(a5)
   1263a:	01e7a223          	sw	t5,4(a5)
   1263e:	c7b2                	c.swsp	a2,204(sp)
   12640:	c5ae                	c.swsp	a1,200(sp)
   12642:	07a1                	c.addi	a5,8
   12644:	febfd4e3          	bge	t6,a1,1262c <_vfprintf_r+0xb9a>
   12648:	45a2                	c.lwsp	a1,8(sp)
   1264a:	4512                	c.lwsp	a0,4(sp)
   1264c:	01d0                	c.addi4spn	a2,sp,196
   1264e:	766010ef          	jal	ra,13db4 <__sprint_r>
   12652:	e13d                	c.bnez	a0,126b8 <_vfprintf_r+0xc26>
   12654:	42c1                	c.li	t0,16
   12656:	1441                	c.addi	s0,-16
   12658:	463e                	c.lwsp	a2,204(sp)
   1265a:	45ae                	c.lwsp	a1,200(sp)
   1265c:	87d6                	c.mv	a5,s5
   1265e:	4f9d                	c.li	t6,7
   12660:	8f16                	c.mv	t5,t0
   12662:	fc82c8e3          	blt	t0,s0,12632 <_vfprintf_r+0xba0>
   12666:	5342                	c.lwsp	t1,48(sp)
   12668:	58f2                	c.lwsp	a7,60(sp)
   1266a:	86a2                	c.mv	a3,s0
   1266c:	8ee2                	c.mv	t4,s8
   1266e:	843e                	c.mv	s0,a5
   12670:	9636                	c.add	a2,a3
   12672:	0585                	c.addi	a1,1
   12674:	01342023          	sw	s3,0(s0)
   12678:	c054                	c.sw	a3,4(s0)
   1267a:	c7b2                	c.swsp	a2,204(sp)
   1267c:	c5ae                	c.swsp	a1,200(sp)
   1267e:	479d                	c.li	a5,7
   12680:	0421                	c.addi	s0,8
   12682:	deb7d863          	bge	a5,a1,11c72 <_vfprintf_r+0x1e0>
   12686:	45a2                	c.lwsp	a1,8(sp)
   12688:	4512                	c.lwsp	a0,4(sp)
   1268a:	01d0                	c.addi4spn	a2,sp,196
   1268c:	c0c6                	c.swsp	a7,64(sp)
   1268e:	de1a                	c.swsp	t1,60(sp)
   12690:	d876                	c.swsp	t4,48(sp)
   12692:	722010ef          	jal	ra,13db4 <__sprint_r>
   12696:	e10d                	c.bnez	a0,126b8 <_vfprintf_r+0xc26>
   12698:	463e                	c.lwsp	a2,204(sp)
   1269a:	5ec2                	c.lwsp	t4,48(sp)
   1269c:	5372                	c.lwsp	t1,60(sp)
   1269e:	4886                	c.lwsp	a7,64(sp)
   126a0:	8456                	c.mv	s0,s5
   126a2:	dd0ff06f          	jal	zero,11c72 <_vfprintf_r+0x1e0>
   126a6:	45a2                	c.lwsp	a1,8(sp)
   126a8:	4512                	c.lwsp	a0,4(sp)
   126aa:	01d0                	c.addi4spn	a2,sp,196
   126ac:	ce76                	c.swsp	t4,28(sp)
   126ae:	706010ef          	jal	ra,13db4 <__sprint_r>
   126b2:	4ef2                	c.lwsp	t4,28(sp)
   126b4:	e0050463          	beq	a0,zero,11cbc <_vfprintf_r+0x22a>
   126b8:	49a2                	c.lwsp	s3,8(sp)
   126ba:	45d2                	c.lwsp	a1,20(sp)
   126bc:	c581                	c.beqz	a1,126c4 <_vfprintf_r+0xc32>
   126be:	4512                	c.lwsp	a0,4(sp)
   126c0:	fabfe0ef          	jal	ra,1166a <_free_r>
   126c4:	00c9d783          	lhu	a5,12(s3)
   126c8:	1c412483          	lw	s1,452(sp)
   126cc:	1c012903          	lw	s2,448(sp)
   126d0:	0407f793          	andi	a5,a5,64
   126d4:	1b812a03          	lw	s4,440(sp)
   126d8:	1b412a83          	lw	s5,436(sp)
   126dc:	1b012b03          	lw	s6,432(sp)
   126e0:	1ac12b83          	lw	s7,428(sp)
   126e4:	1a812c03          	lw	s8,424(sp)
   126e8:	1a412c83          	lw	s9,420(sp)
   126ec:	1a012d03          	lw	s10,416(sp)
   126f0:	19c12d83          	lw	s11,412(sp)
   126f4:	e6079563          	bne	a5,zero,11d5e <_vfprintf_r+0x2cc>
   126f8:	1cc12083          	lw	ra,460(sp)
   126fc:	1c812403          	lw	s0,456(sp)
   12700:	4532                	c.lwsp	a0,12(sp)
   12702:	1bc12983          	lw	s3,444(sp)
   12706:	6179                	c.addi16sp	sp,464
   12708:	8082                	c.jr	ra
   1270a:	47ae                	c.lwsp	a5,200(sp)
   1270c:	4585                	c.li	a1,1
   1270e:	00b60a33          	add	s4,a2,a1
   12712:	00b78db3          	add	s11,a5,a1
   12716:	47e2                	c.lwsp	a5,24(sp)
   12718:	00840693          	addi	a3,s0,8
   1271c:	28f5d063          	bge	a1,a5,1299c <_vfprintf_r+0xf0a>
   12720:	4785                	c.li	a5,1
   12722:	c05c                	c.sw	a5,4(s0)
   12724:	01642023          	sw	s6,0(s0)
   12728:	c7d2                	c.swsp	s4,204(sp)
   1272a:	c5ee                	c.swsp	s11,200(sp)
   1272c:	479d                	c.li	a5,7
   1272e:	69b7c063          	blt	a5,s11,12dae <_vfprintf_r+0x131c>
   12732:	5792                	c.lwsp	a5,36(sp)
   12734:	5732                	c.lwsp	a4,44(sp)
   12736:	0d85                	c.addi	s11,1
   12738:	9a3e                	c.add	s4,a5
   1273a:	c2dc                	c.sw	a5,4(a3)
   1273c:	c298                	c.sw	a4,0(a3)
   1273e:	c7d2                	c.swsp	s4,204(sp)
   12740:	c5ee                	c.swsp	s11,200(sp)
   12742:	479d                	c.li	a5,7
   12744:	06a1                	c.addi	a3,8
   12746:	69b7c363          	blt	a5,s11,12dcc <_vfprintf_r+0x133a>
   1274a:	47fe                	c.lwsp	a5,220(sp)
   1274c:	454e                	c.lwsp	a0,208(sp)
   1274e:	45de                	c.lwsp	a1,212(sp)
   12750:	466e                	c.lwsp	a2,216(sp)
   12752:	cf3e                	c.swsp	a5,156(sp)
   12754:	47e2                	c.lwsp	a5,24(sp)
   12756:	c92a                	c.swsp	a0,144(sp)
   12758:	cb2e                	c.swsp	a1,148(sp)
   1275a:	0908                	c.addi4spn	a0,sp,144
   1275c:	010c                	c.addi4spn	a1,sp,128
   1275e:	d836                	c.swsp	a3,48(sp)
   12760:	d01a                	c.swsp	t1,32(sp)
   12762:	ce76                	c.swsp	t4,28(sp)
   12764:	c102                	c.swsp	zero,128(sp)
   12766:	c302                	c.swsp	zero,132(sp)
   12768:	c502                	c.swsp	zero,136(sp)
   1276a:	c702                	c.swsp	zero,140(sp)
   1276c:	cd32                	c.swsp	a2,152(sp)
   1276e:	fff78413          	addi	s0,a5,-1
   12772:	6a4080ef          	jal	ra,1ae16 <__eqtf2>
   12776:	4ef2                	c.lwsp	t4,28(sp)
   12778:	5302                	c.lwsp	t1,32(sp)
   1277a:	56c2                	c.lwsp	a3,48(sp)
   1277c:	24050b63          	beq	a0,zero,129d2 <_vfprintf_r+0xf40>
   12780:	0d85                	c.addi	s11,1
   12782:	9a22                	c.add	s4,s0
   12784:	0b05                	c.addi	s6,1
   12786:	c5ee                	c.swsp	s11,200(sp)
   12788:	c7d2                	c.swsp	s4,204(sp)
   1278a:	0166a023          	sw	s6,0(a3)
   1278e:	c2c0                	c.sw	s0,4(a3)
   12790:	479d                	c.li	a5,7
   12792:	3fb7cf63          	blt	a5,s11,12b90 <_vfprintf_r+0x10fe>
   12796:	06a1                	c.addi	a3,8
   12798:	5752                	c.lwsp	a4,52(sp)
   1279a:	194c                	c.addi4spn	a1,sp,180
   1279c:	001d8793          	addi	a5,s11,1
   127a0:	01470633          	add	a2,a4,s4
   127a4:	c28c                	c.sw	a1,0(a3)
   127a6:	c7b2                	c.swsp	a2,204(sp)
   127a8:	c5be                	c.swsp	a5,200(sp)
   127aa:	c2d8                	c.sw	a4,4(a3)
   127ac:	459d                	c.li	a1,7
   127ae:	00868413          	addi	s0,a3,8
   127b2:	cef5d563          	bge	a1,a5,11c9c <_vfprintf_r+0x20a>
   127b6:	45a2                	c.lwsp	a1,8(sp)
   127b8:	4512                	c.lwsp	a0,4(sp)
   127ba:	01d0                	c.addi4spn	a2,sp,196
   127bc:	d01a                	c.swsp	t1,32(sp)
   127be:	ce76                	c.swsp	t4,28(sp)
   127c0:	5f4010ef          	jal	ra,13db4 <__sprint_r>
   127c4:	ee051ae3          	bne	a0,zero,126b8 <_vfprintf_r+0xc26>
   127c8:	463e                	c.lwsp	a2,204(sp)
   127ca:	5302                	c.lwsp	t1,32(sp)
   127cc:	4ef2                	c.lwsp	t4,28(sp)
   127ce:	8456                	c.mv	s0,s5
   127d0:	cccff06f          	jal	zero,11c9c <_vfprintf_r+0x20a>
   127d4:	45a2                	c.lwsp	a1,8(sp)
   127d6:	4512                	c.lwsp	a0,4(sp)
   127d8:	01d0                	c.addi4spn	a2,sp,196
   127da:	c0c6                	c.swsp	a7,64(sp)
   127dc:	de1a                	c.swsp	t1,60(sp)
   127de:	d876                	c.swsp	t4,48(sp)
   127e0:	5d4010ef          	jal	ra,13db4 <__sprint_r>
   127e4:	ec051ae3          	bne	a0,zero,126b8 <_vfprintf_r+0xc26>
   127e8:	463e                	c.lwsp	a2,204(sp)
   127ea:	4886                	c.lwsp	a7,64(sp)
   127ec:	5372                	c.lwsp	t1,60(sp)
   127ee:	5ec2                	c.lwsp	t4,48(sp)
   127f0:	8456                	c.mv	s0,s5
   127f2:	c78ff06f          	jal	zero,11c6a <_vfprintf_r+0x1d8>
   127f6:	57ba                	c.lwsp	a5,172(sp)
   127f8:	66f05a63          	bge	zero,a5,12e6c <_vfprintf_r+0x13da>
   127fc:	47e2                	c.lwsp	a5,24(sp)
   127fe:	8a5e                	c.mv	s4,s7
   12800:	3777c663          	blt	a5,s7,12b6c <_vfprintf_r+0x10da>
   12804:	01405f63          	bge	zero,s4,12822 <_vfprintf_r+0xd90>
   12808:	47ae                	c.lwsp	a5,200(sp)
   1280a:	9652                	c.add	a2,s4
   1280c:	01642023          	sw	s6,0(s0)
   12810:	0785                	c.addi	a5,1
   12812:	01442223          	sw	s4,4(s0)
   12816:	c7b2                	c.swsp	a2,204(sp)
   12818:	c5be                	c.swsp	a5,200(sp)
   1281a:	469d                	c.li	a3,7
   1281c:	0421                	c.addi	s0,8
   1281e:	38f6c3e3          	blt	a3,a5,133a4 <_vfprintf_r+0x1912>
   12822:	fffa4793          	xori	a5,s4,-1
   12826:	87fd                	c.srai	a5,0x1f
   12828:	00fa7a33          	and	s4,s4,a5
   1282c:	414b8a33          	sub	s4,s7,s4
   12830:	47404263          	blt	zero,s4,12c94 <_vfprintf_r+0x1202>
   12834:	400cf793          	andi	a5,s9,1024
   12838:	017b09b3          	add	s3,s6,s7
   1283c:	120796e3          	bne	a5,zero,13168 <_vfprintf_r+0x16d6>
   12840:	5a3a                	c.lwsp	s4,172(sp)
   12842:	4762                	c.lwsp	a4,24(sp)
   12844:	00ea4663          	blt	s4,a4,12850 <_vfprintf_r+0xdbe>
   12848:	001cf793          	andi	a5,s9,1
   1284c:	3a0785e3          	beq	a5,zero,133f6 <_vfprintf_r+0x1964>
   12850:	47ae                	c.lwsp	a5,200(sp)
   12852:	5712                	c.lwsp	a4,36(sp)
   12854:	56b2                	c.lwsp	a3,44(sp)
   12856:	0785                	c.addi	a5,1
   12858:	963a                	c.add	a2,a4
   1285a:	c014                	c.sw	a3,0(s0)
   1285c:	c058                	c.sw	a4,4(s0)
   1285e:	c7b2                	c.swsp	a2,204(sp)
   12860:	c5be                	c.swsp	a5,200(sp)
   12862:	469d                	c.li	a3,7
   12864:	0421                	c.addi	s0,8
   12866:	00f6d463          	bge	a3,a5,1286e <_vfprintf_r+0xddc>
   1286a:	0dc0106f          	jal	zero,13946 <_vfprintf_r+0x1eb4>
   1286e:	47e2                	c.lwsp	a5,24(sp)
   12870:	9b3e                	c.add	s6,a5
   12872:	413b0b33          	sub	s6,s6,s3
   12876:	41478a33          	sub	s4,a5,s4
   1287a:	016a5363          	bge	s4,s6,12880 <_vfprintf_r+0xdee>
   1287e:	8b52                	c.mv	s6,s4
   12880:	03605163          	bge	zero,s6,128a2 <_vfprintf_r+0xe10>
   12884:	47ae                	c.lwsp	a5,200(sp)
   12886:	965a                	c.add	a2,s6
   12888:	01342023          	sw	s3,0(s0)
   1288c:	0785                	c.addi	a5,1
   1288e:	01642223          	sw	s6,4(s0)
   12892:	c7b2                	c.swsp	a2,204(sp)
   12894:	c5be                	c.swsp	a5,200(sp)
   12896:	469d                	c.li	a3,7
   12898:	0421                	c.addi	s0,8
   1289a:	00f6d463          	bge	a3,a5,128a2 <_vfprintf_r+0xe10>
   1289e:	1980106f          	jal	zero,13a36 <_vfprintf_r+0x1fa4>
   128a2:	fffb4793          	xori	a5,s6,-1
   128a6:	87fd                	c.srai	a5,0x1f
   128a8:	00fb7b33          	and	s6,s6,a5
   128ac:	416a0a33          	sub	s4,s4,s6
   128b0:	bf405663          	bge	zero,s4,11c9c <_vfprintf_r+0x20a>
   128b4:	67f9                	c.lui	a5,0x1e
   128b6:	4b41                	c.li	s6,16
   128b8:	46ae                	c.lwsp	a3,200(sp)
   128ba:	aac78993          	addi	s3,a5,-1364 # 1daac <zeroes.0>
   128be:	674b5963          	bge	s6,s4,12f30 <_vfprintf_r+0x149e>
   128c2:	87a2                	c.mv	a5,s0
   128c4:	8bce                	c.mv	s7,s3
   128c6:	4c22                	c.lwsp	s8,8(sp)
   128c8:	885a                	c.mv	a6,s6
   128ca:	4d9d                	c.li	s11,7
   128cc:	8476                	c.mv	s0,t4
   128ce:	899a                	c.mv	s3,t1
   128d0:	a021                	c.j	128d8 <_vfprintf_r+0xe46>
   128d2:	1a41                	c.addi	s4,-16
   128d4:	65485a63          	bge	a6,s4,12f28 <_vfprintf_r+0x1496>
   128d8:	0641                	c.addi	a2,16
   128da:	0685                	c.addi	a3,1
   128dc:	0177a023          	sw	s7,0(a5)
   128e0:	0167a223          	sw	s6,4(a5)
   128e4:	c7b2                	c.swsp	a2,204(sp)
   128e6:	c5b6                	c.swsp	a3,200(sp)
   128e8:	07a1                	c.addi	a5,8
   128ea:	feddd4e3          	bge	s11,a3,128d2 <_vfprintf_r+0xe40>
   128ee:	4512                	c.lwsp	a0,4(sp)
   128f0:	01d0                	c.addi4spn	a2,sp,196
   128f2:	85e2                	c.mv	a1,s8
   128f4:	4c0010ef          	jal	ra,13db4 <__sprint_r>
   128f8:	c119                	c.beqz	a0,128fe <_vfprintf_r+0xe6c>
   128fa:	0460106f          	jal	zero,13940 <_vfprintf_r+0x1eae>
   128fe:	463e                	c.lwsp	a2,204(sp)
   12900:	46ae                	c.lwsp	a3,200(sp)
   12902:	87d6                	c.mv	a5,s5
   12904:	4841                	c.li	a6,16
   12906:	b7f1                	c.j	128d2 <_vfprintf_r+0xe40>
   12908:	46ae                	c.lwsp	a3,200(sp)
   1290a:	8536                	c.mv	a0,a3
   1290c:	4fc1                	c.li	t6,16
   1290e:	66f9                	c.lui	a3,0x1e
   12910:	abc68693          	addi	a3,a3,-1348 # 1dabc <blanks.1>
   12914:	06ffd163          	bge	t6,a5,12976 <_vfprintf_r+0xee4>
   12918:	8722                	c.mv	a4,s0
   1291a:	de4e                	c.swsp	s3,60(sp)
   1291c:	83fe                	c.mv	t2,t6
   1291e:	429d                	c.li	t0,7
   12920:	d876                	c.swsp	t4,48(sp)
   12922:	8c1a                	c.mv	s8,t1
   12924:	843e                	c.mv	s0,a5
   12926:	c0c6                	c.swsp	a7,64(sp)
   12928:	89b6                	c.mv	s3,a3
   1292a:	a021                	c.j	12932 <_vfprintf_r+0xea0>
   1292c:	1441                	c.addi	s0,-16
   1292e:	0283dd63          	bge	t2,s0,12968 <_vfprintf_r+0xed6>
   12932:	05c1                	c.addi	a1,16
   12934:	0505                	c.addi	a0,1
   12936:	01372023          	sw	s3,0(a4)
   1293a:	01f72223          	sw	t6,4(a4)
   1293e:	c7ae                	c.swsp	a1,204(sp)
   12940:	c5aa                	c.swsp	a0,200(sp)
   12942:	0721                	c.addi	a4,8
   12944:	fea2d4e3          	bge	t0,a0,1292c <_vfprintf_r+0xe9a>
   12948:	45a2                	c.lwsp	a1,8(sp)
   1294a:	4512                	c.lwsp	a0,4(sp)
   1294c:	01d0                	c.addi4spn	a2,sp,196
   1294e:	466010ef          	jal	ra,13db4 <__sprint_r>
   12952:	d60513e3          	bne	a0,zero,126b8 <_vfprintf_r+0xc26>
   12956:	43c1                	c.li	t2,16
   12958:	1441                	c.addi	s0,-16
   1295a:	45be                	c.lwsp	a1,204(sp)
   1295c:	452e                	c.lwsp	a0,200(sp)
   1295e:	8756                	c.mv	a4,s5
   12960:	429d                	c.li	t0,7
   12962:	8f9e                	c.mv	t6,t2
   12964:	fc83c7e3          	blt	t2,s0,12932 <_vfprintf_r+0xea0>
   12968:	86ce                	c.mv	a3,s3
   1296a:	5ec2                	c.lwsp	t4,48(sp)
   1296c:	4886                	c.lwsp	a7,64(sp)
   1296e:	59f2                	c.lwsp	s3,60(sp)
   12970:	87a2                	c.mv	a5,s0
   12972:	8362                	c.mv	t1,s8
   12974:	843a                	c.mv	s0,a4
   12976:	00b78633          	add	a2,a5,a1
   1297a:	0505                	c.addi	a0,1
   1297c:	c05c                	c.sw	a5,4(s0)
   1297e:	c7b2                	c.swsp	a2,204(sp)
   12980:	c5aa                	c.swsp	a0,200(sp)
   12982:	c014                	c.sw	a3,0(s0)
   12984:	479d                	c.li	a5,7
   12986:	52a7cb63          	blt	a5,a0,12ebc <_vfprintf_r+0x142a>
   1298a:	0a714783          	lbu	a5,167(sp)
   1298e:	0421                	c.addi	s0,8
   12990:	ebcd                	c.bnez	a5,12a42 <_vfprintf_r+0xfb0>
   12992:	ae098063          	beq	s3,zero,11c72 <_vfprintf_r+0x1e0>
   12996:	4981                	c.li	s3,0
   12998:	abaff06f          	jal	zero,11c52 <_vfprintf_r+0x1c0>
   1299c:	00bcf7b3          	and	a5,s9,a1
   129a0:	d80790e3          	bne	a5,zero,12720 <_vfprintf_r+0xc8e>
   129a4:	01642023          	sw	s6,0(s0)
   129a8:	c04c                	c.sw	a1,4(s0)
   129aa:	c7d2                	c.swsp	s4,204(sp)
   129ac:	c5ee                	c.swsp	s11,200(sp)
   129ae:	479d                	c.li	a5,7
   129b0:	dfb7d4e3          	bge	a5,s11,12798 <_vfprintf_r+0xd06>
   129b4:	45a2                	c.lwsp	a1,8(sp)
   129b6:	4512                	c.lwsp	a0,4(sp)
   129b8:	01d0                	c.addi4spn	a2,sp,196
   129ba:	d01a                	c.swsp	t1,32(sp)
   129bc:	ce76                	c.swsp	t4,28(sp)
   129be:	3f6010ef          	jal	ra,13db4 <__sprint_r>
   129c2:	ce051be3          	bne	a0,zero,126b8 <_vfprintf_r+0xc26>
   129c6:	4a3e                	c.lwsp	s4,204(sp)
   129c8:	4dae                	c.lwsp	s11,200(sp)
   129ca:	5302                	c.lwsp	t1,32(sp)
   129cc:	4ef2                	c.lwsp	t4,28(sp)
   129ce:	86d6                	c.mv	a3,s5
   129d0:	b3e1                	c.j	12798 <_vfprintf_r+0xd06>
   129d2:	4762                	c.lwsp	a4,24(sp)
   129d4:	4785                	c.li	a5,1
   129d6:	dce7d1e3          	bge	a5,a4,12798 <_vfprintf_r+0xd06>
   129da:	47c5                	c.li	a5,17
   129dc:	00e7c463          	blt	a5,a4,129e4 <_vfprintf_r+0xf52>
   129e0:	2940106f          	jal	zero,13c74 <_vfprintf_r+0x21e2>
   129e4:	67f9                	c.lui	a5,0x1e
   129e6:	aac78993          	addi	s3,a5,-1364 # 1daac <zeroes.0>
   129ea:	8ba2                	c.mv	s7,s0
   129ec:	8c4e                	c.mv	s8,s3
   129ee:	4b41                	c.li	s6,16
   129f0:	481d                	c.li	a6,7
   129f2:	8476                	c.mv	s0,t4
   129f4:	899a                	c.mv	s3,t1
   129f6:	a021                	c.j	129fe <_vfprintf_r+0xf6c>
   129f8:	1bc1                	c.addi	s7,-16
   129fa:	177b5d63          	bge	s6,s7,12b74 <_vfprintf_r+0x10e2>
   129fe:	0a41                	c.addi	s4,16
   12a00:	0d85                	c.addi	s11,1
   12a02:	0186a023          	sw	s8,0(a3)
   12a06:	0166a223          	sw	s6,4(a3)
   12a0a:	c7d2                	c.swsp	s4,204(sp)
   12a0c:	c5ee                	c.swsp	s11,200(sp)
   12a0e:	06a1                	c.addi	a3,8
   12a10:	ffb854e3          	bge	a6,s11,129f8 <_vfprintf_r+0xf66>
   12a14:	45a2                	c.lwsp	a1,8(sp)
   12a16:	4512                	c.lwsp	a0,4(sp)
   12a18:	01d0                	c.addi4spn	a2,sp,196
   12a1a:	39a010ef          	jal	ra,13db4 <__sprint_r>
   12a1e:	c8051de3          	bne	a0,zero,126b8 <_vfprintf_r+0xc26>
   12a22:	4a3e                	c.lwsp	s4,204(sp)
   12a24:	4dae                	c.lwsp	s11,200(sp)
   12a26:	86d6                	c.mv	a3,s5
   12a28:	481d                	c.li	a6,7
   12a2a:	b7f9                	c.j	129f8 <_vfprintf_r+0xf66>
   12a2c:	001cf793          	andi	a5,s9,1
   12a30:	a6078663          	beq	a5,zero,11c9c <_vfprintf_r+0x20a>
   12a34:	e8aff06f          	jal	zero,120be <_vfprintf_r+0x62c>
   12a38:	0009c883          	lbu	a7,0(s3)
   12a3c:	c83e                	c.swsp	a5,16(sp)
   12a3e:	97aff06f          	jal	zero,11bb8 <_vfprintf_r+0x126>
   12a42:	87ce                	c.mv	a5,s3
   12a44:	4981                	c.li	s3,0
   12a46:	9eeff06f          	jal	zero,11c34 <_vfprintf_r+0x1a2>
   12a4a:	4632                	c.lwsp	a2,12(sp)
   12a4c:	429c                	c.lw	a5,0(a3)
   12a4e:	c83a                	c.swsp	a4,16(sp)
   12a50:	41f65693          	srai	a3,a2,0x1f
   12a54:	c390                	c.sw	a2,0(a5)
   12a56:	c3d4                	c.sw	a3,4(a5)
   12a58:	bc81                	c.j	124a8 <_vfprintf_r+0xa16>
   12a5a:	4742                	c.lwsp	a4,16(sp)
   12a5c:	431c                	c.lw	a5,0(a4)
   12a5e:	0711                	c.addi	a4,4
   12a60:	c83a                	c.swsp	a4,16(sp)
   12a62:	4390                	c.lw	a2,0(a5)
   12a64:	43d4                	c.lw	a3,4(a5)
   12a66:	4798                	c.lw	a4,8(a5)
   12a68:	47dc                	c.lw	a5,12(a5)
   12a6a:	b30ff06f          	jal	zero,11d9a <_vfprintf_r+0x308>
   12a6e:	4742                	c.lwsp	a4,16(sp)
   12a70:	010cf793          	andi	a5,s9,16
   12a74:	4314                	c.lw	a3,0(a4)
   12a76:	0711                	c.addi	a4,4
   12a78:	c399                	c.beqz	a5,12a7e <_vfprintf_r+0xfec>
   12a7a:	05a0106f          	jal	zero,13ad4 <_vfprintf_r+0x2042>
   12a7e:	040cf793          	andi	a5,s9,64
   12a82:	3a078b63          	beq	a5,zero,12e38 <_vfprintf_r+0x13a6>
   12a86:	01069d13          	slli	s10,a3,0x10
   12a8a:	0a0103a3          	sb	zero,167(sp)
   12a8e:	010d5d13          	srli	s10,s10,0x10
   12a92:	4d81                	c.li	s11,0
   12a94:	8a0a44e3          	blt	s4,zero,1233c <_vfprintf_r+0x8aa>
   12a98:	f7fcfc93          	andi	s9,s9,-129
   12a9c:	8a0d10e3          	bne	s10,zero,1233c <_vfprintf_r+0x8aa>
   12aa0:	c83a                	c.swsp	a4,16(sp)
   12aa2:	9a0a1ce3          	bne	s4,zero,1245a <_vfprintf_r+0x9c8>
   12aa6:	4d81                	c.li	s11,0
   12aa8:	19010b13          	addi	s6,sp,400
   12aac:	feeff06f          	jal	zero,1229a <_vfprintf_r+0x808>
   12ab0:	47c2                	c.lwsp	a5,16(sp)
   12ab2:	00478713          	addi	a4,a5,4
   12ab6:	47c2                	c.lwsp	a5,16(sp)
   12ab8:	4601                	c.li	a2,0
   12aba:	c83a                	c.swsp	a4,16(sp)
   12abc:	439c                	c.lw	a5,0(a5)
   12abe:	facff06f          	jal	zero,1226a <_vfprintf_r+0x7d8>
   12ac2:	47c2                	c.lwsp	a5,16(sp)
   12ac4:	00478713          	addi	a4,a5,4
   12ac8:	47c2                	c.lwsp	a5,16(sp)
   12aca:	8cf2                	c.mv	s9,t3
   12acc:	c83a                	c.swsp	a4,16(sp)
   12ace:	0007ad03          	lw	s10,0(a5)
   12ad2:	41fd5d93          	srai	s11,s10,0x1f
   12ad6:	876e                	c.mv	a4,s11
   12ad8:	eaaff06f          	jal	zero,12182 <_vfprintf_r+0x6f0>
   12adc:	8866                	c.mv	a6,s9
   12ade:	f7aff06f          	jal	zero,12258 <_vfprintf_r+0x7c6>
   12ae2:	65f5                	c.lui	a1,0x1d
   12ae4:	00f77613          	andi	a2,a4,15
   12ae8:	32858693          	addi	a3,a1,808 # 1d328 <__extenddftf2+0x892>
   12aec:	96b2                	c.add	a3,a2
   12aee:	0006c683          	lbu	a3,0(a3)
   12af2:	8311                	c.srli	a4,0x4
   12af4:	002cec93          	ori	s9,s9,2
   12af8:	18d107a3          	sb	a3,399(sp)
   12afc:	4681                	c.li	a3,0
   12afe:	e319                	c.bnez	a4,12b04 <_vfprintf_r+0x1072>
   12b00:	1d20106f          	jal	zero,13cd2 <_vfprintf_r+0x2240>
   12b04:	c83e                	c.swsp	a5,16(sp)
   12b06:	32858593          	addi	a1,a1,808
   12b0a:	07800893          	addi	a7,zero,120
   12b0e:	4609                	c.li	a2,2
   12b10:	18f10b13          	addi	s6,sp,399
   12b14:	00f77793          	andi	a5,a4,15
   12b18:	97ae                	c.add	a5,a1
   12b1a:	0007c783          	lbu	a5,0(a5)
   12b1e:	01c69513          	slli	a0,a3,0x1c
   12b22:	8311                	c.srli	a4,0x4
   12b24:	8f49                	c.or	a4,a0
   12b26:	8291                	c.srli	a3,0x4
   12b28:	fefb0fa3          	sb	a5,-1(s6)
   12b2c:	00d767b3          	or	a5,a4,a3
   12b30:	1b7d                	c.addi	s6,-1
   12b32:	f3ed                	c.bnez	a5,12b14 <_vfprintf_r+0x1082>
   12b34:	0b1c                	c.addi4spn	a5,sp,400
   12b36:	41678db3          	sub	s11,a5,s6
   12b3a:	8d52                	c.mv	s10,s4
   12b3c:	01ba5363          	bge	s4,s11,12b42 <_vfprintf_r+0x10b0>
   12b40:	8d6e                	c.mv	s10,s11
   12b42:	ca02                	c.swsp	zero,20(sp)
   12b44:	d002                	c.swsp	zero,32(sp)
   12b46:	ce02                	c.swsp	zero,28(sp)
   12b48:	4b81                	c.li	s7,0
   12b4a:	4f81                	c.li	t6,0
   12b4c:	8c060963          	beq	a2,zero,11c1e <_vfprintf_r+0x18c>
   12b50:	463e                	c.lwsp	a2,204(sp)
   12b52:	452e                	c.lwsp	a0,200(sp)
   12b54:	084cf993          	andi	s3,s9,132
   12b58:	0d09                	c.addi	s10,2
   12b5a:	85b2                	c.mv	a1,a2
   12b5c:	86aa                	c.mv	a3,a0
   12b5e:	1e098063          	beq	s3,zero,12d3e <_vfprintf_r+0x12ac>
   12b62:	4789                	c.li	a5,2
   12b64:	8c0f9863          	bne	t6,zero,11c34 <_vfprintf_r+0x1a2>
   12b68:	8eaff06f          	jal	zero,11c52 <_vfprintf_r+0x1c0>
   12b6c:	8a3e                	c.mv	s4,a5
   12b6e:	c9404de3          	blt	zero,s4,12808 <_vfprintf_r+0xd76>
   12b72:	b945                	c.j	12822 <_vfprintf_r+0xd90>
   12b74:	8ea2                	c.mv	t4,s0
   12b76:	834e                	c.mv	t1,s3
   12b78:	845e                	c.mv	s0,s7
   12b7a:	89e2                	c.mv	s3,s8
   12b7c:	9a22                	c.add	s4,s0
   12b7e:	0d85                	c.addi	s11,1
   12b80:	c7d2                	c.swsp	s4,204(sp)
   12b82:	c5ee                	c.swsp	s11,200(sp)
   12b84:	0136a023          	sw	s3,0(a3)
   12b88:	c2c0                	c.sw	s0,4(a3)
   12b8a:	479d                	c.li	a5,7
   12b8c:	c1b7d5e3          	bge	a5,s11,12796 <_vfprintf_r+0xd04>
   12b90:	45a2                	c.lwsp	a1,8(sp)
   12b92:	4512                	c.lwsp	a0,4(sp)
   12b94:	01d0                	c.addi4spn	a2,sp,196
   12b96:	d01a                	c.swsp	t1,32(sp)
   12b98:	ce76                	c.swsp	t4,28(sp)
   12b9a:	21a010ef          	jal	ra,13db4 <__sprint_r>
   12b9e:	b0051de3          	bne	a0,zero,126b8 <_vfprintf_r+0xc26>
   12ba2:	4a3e                	c.lwsp	s4,204(sp)
   12ba4:	4dae                	c.lwsp	s11,200(sp)
   12ba6:	4ef2                	c.lwsp	t4,28(sp)
   12ba8:	5302                	c.lwsp	t1,32(sp)
   12baa:	86d6                	c.mv	a3,s5
   12bac:	b6f5                	c.j	12798 <_vfprintf_r+0xd06>
   12bae:	5a7d                	c.li	s4,-1
   12bb0:	89b6                	c.mv	s3,a3
   12bb2:	808ff06f          	jal	zero,11bba <_vfprintf_r+0x128>
   12bb6:	65f5                	c.lui	a1,0x1d
   12bb8:	8ece                	c.mv	t4,s3
   12bba:	835e                	c.mv	t1,s7
   12bbc:	33c58593          	addi	a1,a1,828 # 1d33c <__extenddftf2+0x8a6>
   12bc0:	020cf793          	andi	a5,s9,32
   12bc4:	1c078763          	beq	a5,zero,12d92 <_vfprintf_r+0x1300>
   12bc8:	47c2                	c.lwsp	a5,16(sp)
   12bca:	079d                	c.addi	a5,7
   12bcc:	9be1                	c.andi	a5,-8
   12bce:	00878713          	addi	a4,a5,8
   12bd2:	c83a                	c.swsp	a4,16(sp)
   12bd4:	43d4                	c.lw	a3,4(a5)
   12bd6:	4398                	c.lw	a4,0(a5)
   12bd8:	001cf793          	andi	a5,s9,1
   12bdc:	16078f63          	beq	a5,zero,12d5a <_vfprintf_r+0x12c8>
   12be0:	00d767b3          	or	a5,a4,a3
   12be4:	30078363          	beq	a5,zero,12eea <_vfprintf_r+0x1458>
   12be8:	03000793          	addi	a5,zero,48
   12bec:	0b1104a3          	sb	a7,169(sp)
   12bf0:	0a0103a3          	sb	zero,167(sp)
   12bf4:	0af10423          	sb	a5,168(sp)
   12bf8:	1e0a4f63          	blt	s4,zero,12df6 <_vfprintf_r+0x1364>
   12bfc:	b7fcfe13          	andi	t3,s9,-1153
   12c00:	002e6c93          	ori	s9,t3,2
   12c04:	00f77793          	andi	a5,a4,15
   12c08:	97ae                	c.add	a5,a1
   12c0a:	0007c783          	lbu	a5,0(a5)
   12c0e:	002cf613          	andi	a2,s9,2
   12c12:	01c69513          	slli	a0,a3,0x1c
   12c16:	8311                	c.srli	a4,0x4
   12c18:	8f49                	c.or	a4,a0
   12c1a:	8291                	c.srli	a3,0x4
   12c1c:	18f107a3          	sb	a5,399(sp)
   12c20:	00d767b3          	or	a5,a4,a3
   12c24:	ee0796e3          	bne	a5,zero,12b10 <_vfprintf_r+0x107e>
   12c28:	18f10b13          	addi	s6,sp,399
   12c2c:	b721                	c.j	12b34 <_vfprintf_r+0x10a2>
   12c2e:	65f5                	c.lui	a1,0x1d
   12c30:	8ece                	c.mv	t4,s3
   12c32:	835e                	c.mv	t1,s7
   12c34:	32858593          	addi	a1,a1,808 # 1d328 <__extenddftf2+0x892>
   12c38:	b761                	c.j	12bc0 <_vfprintf_r+0x112e>
   12c3a:	0019c883          	lbu	a7,1(s3)
   12c3e:	020cec93          	ori	s9,s9,32
   12c42:	0985                	c.addi	s3,1
   12c44:	f75fe06f          	jal	zero,11bb8 <_vfprintf_r+0x126>
   12c48:	0019c883          	lbu	a7,1(s3)
   12c4c:	200cec93          	ori	s9,s9,512
   12c50:	0985                	c.addi	s3,1
   12c52:	f67fe06f          	jal	zero,11bb8 <_vfprintf_r+0x126>
   12c56:	45a2                	c.lwsp	a1,8(sp)
   12c58:	4512                	c.lwsp	a0,4(sp)
   12c5a:	01d0                	c.addi4spn	a2,sp,196
   12c5c:	d01a                	c.swsp	t1,32(sp)
   12c5e:	ce76                	c.swsp	t4,28(sp)
   12c60:	154010ef          	jal	ra,13db4 <__sprint_r>
   12c64:	a4051ae3          	bne	a0,zero,126b8 <_vfprintf_r+0xc26>
   12c68:	463e                	c.lwsp	a2,204(sp)
   12c6a:	5302                	c.lwsp	t1,32(sp)
   12c6c:	4ef2                	c.lwsp	t4,28(sp)
   12c6e:	8456                	c.mv	s0,s5
   12c70:	c68ff06f          	jal	zero,120d8 <_vfprintf_r+0x646>
   12c74:	4799                	c.li	a5,6
   12c76:	8d52                	c.mv	s10,s4
   12c78:	7747ed63          	bltu	a5,s4,133f2 <_vfprintf_r+0x1960>
   12c7c:	6b75                	c.lui	s6,0x1d
   12c7e:	c84e                	c.swsp	s3,16(sp)
   12c80:	350b0b13          	addi	s6,s6,848 # 1d350 <__extenddftf2+0x8ba>
   12c84:	ca02                	c.swsp	zero,20(sp)
   12c86:	8dea                	c.mv	s11,s10
   12c88:	4a01                	c.li	s4,0
   12c8a:	d002                	c.swsp	zero,32(sp)
   12c8c:	ce02                	c.swsp	zero,28(sp)
   12c8e:	4b81                	c.li	s7,0
   12c90:	f8ffe06f          	jal	zero,11c1e <_vfprintf_r+0x18c>
   12c94:	67f9                	c.lui	a5,0x1e
   12c96:	46c1                	c.li	a3,16
   12c98:	45ae                	c.lwsp	a1,200(sp)
   12c9a:	aac78993          	addi	s3,a5,-1364 # 1daac <zeroes.0>
   12c9e:	3b46d563          	bge	a3,s4,13048 <_vfprintf_r+0x15b6>
   12ca2:	87a2                	c.mv	a5,s0
   12ca4:	8c4e                	c.mv	s8,s3
   12ca6:	8452                	c.mv	s0,s4
   12ca8:	88b6                	c.mv	a7,a3
   12caa:	4d9d                	c.li	s11,7
   12cac:	8a1a                	c.mv	s4,t1
   12cae:	89f6                	c.mv	s3,t4
   12cb0:	a021                	c.j	12cb8 <_vfprintf_r+0x1226>
   12cb2:	1441                	c.addi	s0,-16
   12cb4:	3888d563          	bge	a7,s0,1303e <_vfprintf_r+0x15ac>
   12cb8:	0641                	c.addi	a2,16
   12cba:	0585                	c.addi	a1,1
   12cbc:	0187a023          	sw	s8,0(a5)
   12cc0:	c3d4                	c.sw	a3,4(a5)
   12cc2:	c7b2                	c.swsp	a2,204(sp)
   12cc4:	c5ae                	c.swsp	a1,200(sp)
   12cc6:	07a1                	c.addi	a5,8
   12cc8:	febdd5e3          	bge	s11,a1,12cb2 <_vfprintf_r+0x1220>
   12ccc:	45a2                	c.lwsp	a1,8(sp)
   12cce:	4512                	c.lwsp	a0,4(sp)
   12cd0:	01d0                	c.addi4spn	a2,sp,196
   12cd2:	0e2010ef          	jal	ra,13db4 <__sprint_r>
   12cd6:	9e0511e3          	bne	a0,zero,126b8 <_vfprintf_r+0xc26>
   12cda:	48c1                	c.li	a7,16
   12cdc:	463e                	c.lwsp	a2,204(sp)
   12cde:	45ae                	c.lwsp	a1,200(sp)
   12ce0:	87d6                	c.mv	a5,s5
   12ce2:	86c6                	c.mv	a3,a7
   12ce4:	b7f9                	c.j	12cb2 <_vfprintf_r+0x1220>
   12ce6:	4d81                	c.li	s11,0
   12ce8:	4d01                	c.li	s10,0
   12cea:	19010b13          	addi	s6,sp,400
   12cee:	ca02                	c.swsp	zero,20(sp)
   12cf0:	d002                	c.swsp	zero,32(sp)
   12cf2:	ce02                	c.swsp	zero,28(sp)
   12cf4:	4b81                	c.li	s7,0
   12cf6:	f29fe06f          	jal	zero,11c1e <_vfprintf_r+0x18c>
   12cfa:	855a                	c.mv	a0,s6
   12cfc:	ce46                	c.swsp	a7,28(sp)
   12cfe:	c876                	c.swsp	t4,16(sp)
   12d00:	ca5e                	c.swsp	s7,20(sp)
   12d02:	f66fe0ef          	jal	ra,11468 <strlen>
   12d06:	0a714783          	lbu	a5,167(sp)
   12d0a:	fff54713          	xori	a4,a0,-1
   12d0e:	877d                	c.srai	a4,0x1f
   12d10:	4ec2                	c.lwsp	t4,16(sp)
   12d12:	4352                	c.lwsp	t1,20(sp)
   12d14:	48f2                	c.lwsp	a7,28(sp)
   12d16:	8daa                	c.mv	s11,a0
   12d18:	00e57d33          	and	s10,a0,a4
   12d1c:	a6078c63          	beq	a5,zero,11f94 <_vfprintf_r+0x502>
   12d20:	0d05                	c.addi	s10,1
   12d22:	a72ff06f          	jal	zero,11f94 <_vfprintf_r+0x502>
   12d26:	8cc2                	c.mv	s9,a6
   12d28:	c83e                	c.swsp	a5,16(sp)
   12d2a:	4b81                	c.li	s7,0
   12d2c:	ce02                	c.swsp	zero,28(sp)
   12d2e:	4d81                	c.li	s11,0
   12d30:	ca02                	c.swsp	zero,20(sp)
   12d32:	19010b13          	addi	s6,sp,400
   12d36:	07800893          	addi	a7,zero,120
   12d3a:	4f81                	c.li	t6,0
   12d3c:	4d09                	c.li	s10,2
   12d3e:	41a307b3          	sub	a5,t1,s10
   12d42:	00f04a63          	blt	zero,a5,12d56 <_vfprintf_r+0x12c4>
   12d46:	4981                	c.li	s3,0
   12d48:	000f9463          	bne	t6,zero,12d50 <_vfprintf_r+0x12be>
   12d4c:	f07fe06f          	jal	zero,11c52 <_vfprintf_r+0x1c0>
   12d50:	4789                	c.li	a5,2
   12d52:	ee3fe06f          	jal	zero,11c34 <_vfprintf_r+0x1a2>
   12d56:	4989                	c.li	s3,2
   12d58:	be4d                	c.j	1290a <_vfprintf_r+0xe78>
   12d5a:	0a0103a3          	sb	zero,167(sp)
   12d5e:	080a4e63          	blt	s4,zero,12dfa <_vfprintf_r+0x1368>
   12d62:	00d767b3          	or	a5,a4,a3
   12d66:	b7fcfc93          	andi	s9,s9,-1153
   12d6a:	e8079de3          	bne	a5,zero,12c04 <_vfprintf_r+0x1172>
   12d6e:	f60a0ce3          	beq	s4,zero,12ce6 <_vfprintf_r+0x1254>
   12d72:	0005c783          	lbu	a5,0(a1)
   12d76:	8d52                	c.mv	s10,s4
   12d78:	18f107a3          	sb	a5,399(sp)
   12d7c:	6d405963          	bge	zero,s4,1344e <_vfprintf_r+0x19bc>
   12d80:	ca02                	c.swsp	zero,20(sp)
   12d82:	4d85                	c.li	s11,1
   12d84:	d002                	c.swsp	zero,32(sp)
   12d86:	ce02                	c.swsp	zero,28(sp)
   12d88:	4b81                	c.li	s7,0
   12d8a:	18f10b13          	addi	s6,sp,399
   12d8e:	e91fe06f          	jal	zero,11c1e <_vfprintf_r+0x18c>
   12d92:	46c2                	c.lwsp	a3,16(sp)
   12d94:	010cf793          	andi	a5,s9,16
   12d98:	4298                	c.lw	a4,0(a3)
   12d9a:	0691                	c.addi	a3,4
   12d9c:	c836                	c.swsp	a3,16(sp)
   12d9e:	ebb1                	c.bnez	a5,12df2 <_vfprintf_r+0x1360>
   12da0:	040cf793          	andi	a5,s9,64
   12da4:	c3b9                	c.beqz	a5,12dea <_vfprintf_r+0x1358>
   12da6:	0742                	c.slli	a4,0x10
   12da8:	8341                	c.srli	a4,0x10
   12daa:	4681                	c.li	a3,0
   12dac:	b535                	c.j	12bd8 <_vfprintf_r+0x1146>
   12dae:	45a2                	c.lwsp	a1,8(sp)
   12db0:	4512                	c.lwsp	a0,4(sp)
   12db2:	01d0                	c.addi4spn	a2,sp,196
   12db4:	d01a                	c.swsp	t1,32(sp)
   12db6:	ce76                	c.swsp	t4,28(sp)
   12db8:	7fd000ef          	jal	ra,13db4 <__sprint_r>
   12dbc:	8e051ee3          	bne	a0,zero,126b8 <_vfprintf_r+0xc26>
   12dc0:	4a3e                	c.lwsp	s4,204(sp)
   12dc2:	4dae                	c.lwsp	s11,200(sp)
   12dc4:	5302                	c.lwsp	t1,32(sp)
   12dc6:	4ef2                	c.lwsp	t4,28(sp)
   12dc8:	86d6                	c.mv	a3,s5
   12dca:	b2a5                	c.j	12732 <_vfprintf_r+0xca0>
   12dcc:	45a2                	c.lwsp	a1,8(sp)
   12dce:	4512                	c.lwsp	a0,4(sp)
   12dd0:	01d0                	c.addi4spn	a2,sp,196
   12dd2:	d01a                	c.swsp	t1,32(sp)
   12dd4:	ce76                	c.swsp	t4,28(sp)
   12dd6:	7df000ef          	jal	ra,13db4 <__sprint_r>
   12dda:	8c051fe3          	bne	a0,zero,126b8 <_vfprintf_r+0xc26>
   12dde:	4a3e                	c.lwsp	s4,204(sp)
   12de0:	4dae                	c.lwsp	s11,200(sp)
   12de2:	5302                	c.lwsp	t1,32(sp)
   12de4:	4ef2                	c.lwsp	t4,28(sp)
   12de6:	86d6                	c.mv	a3,s5
   12de8:	b28d                	c.j	1274a <_vfprintf_r+0xcb8>
   12dea:	200cf793          	andi	a5,s9,512
   12dee:	62079163          	bne	a5,zero,13410 <_vfprintf_r+0x197e>
   12df2:	4681                	c.li	a3,0
   12df4:	b3d5                	c.j	12bd8 <_vfprintf_r+0x1146>
   12df6:	002cec93          	ori	s9,s9,2
   12dfa:	00f77793          	andi	a5,a4,15
   12dfe:	97ae                	c.add	a5,a1
   12e00:	002cf613          	andi	a2,s9,2
   12e04:	0007c783          	lbu	a5,0(a5)
   12e08:	bffcfc93          	andi	s9,s9,-1025
   12e0c:	b519                	c.j	12c12 <_vfprintf_r+0x1180>
   12e0e:	d7358063          	beq	a1,s3,1236e <_vfprintf_r+0x8dc>
   12e12:	260d9a63          	bne	s11,zero,13086 <_vfprintf_r+0x15f4>
   12e16:	47a5                	c.li	a5,9
   12e18:	27a7e763          	bltu	a5,s10,13086 <_vfprintf_r+0x15f4>
   12e1c:	0b1c                	c.addi4spn	a5,sp,400
   12e1e:	cc2e                	c.swsp	a1,24(sp)
   12e20:	41678db3          	sub	s11,a5,s6
   12e24:	8ede                	c.mv	t4,s7
   12e26:	8362                	c.mv	t1,s8
   12e28:	8d52                	c.mv	s10,s4
   12e2a:	01ba5363          	bge	s4,s11,12e30 <_vfprintf_r+0x139e>
   12e2e:	8d6e                	c.mv	s10,s11
   12e30:	0a714783          	lbu	a5,167(sp)
   12e34:	be0ff06f          	jal	zero,12214 <_vfprintf_r+0x782>
   12e38:	200cf793          	andi	a5,s9,512
   12e3c:	0a0103a3          	sb	zero,167(sp)
   12e40:	5c079d63          	bne	a5,zero,1341a <_vfprintf_r+0x1988>
   12e44:	8d36                	c.mv	s10,a3
   12e46:	4d81                	c.li	s11,0
   12e48:	ce0a4a63          	blt	s4,zero,1233c <_vfprintf_r+0x8aa>
   12e4c:	f7fcfc93          	andi	s9,s9,-129
   12e50:	ce069663          	bne	a3,zero,1233c <_vfprintf_r+0x8aa>
   12e54:	c83a                	c.swsp	a4,16(sp)
   12e56:	e00a1263          	bne	s4,zero,1245a <_vfprintf_r+0x9c8>
   12e5a:	4d01                	c.li	s10,0
   12e5c:	19010b13          	addi	s6,sp,400
   12e60:	ca02                	c.swsp	zero,20(sp)
   12e62:	d002                	c.swsp	zero,32(sp)
   12e64:	ce02                	c.swsp	zero,28(sp)
   12e66:	4b81                	c.li	s7,0
   12e68:	db7fe06f          	jal	zero,11c1e <_vfprintf_r+0x18c>
   12e6c:	46ae                	c.lwsp	a3,200(sp)
   12e6e:	65f5                	c.lui	a1,0x1d
   12e70:	35858593          	addi	a1,a1,856 # 1d358 <__extenddftf2+0x8c2>
   12e74:	0605                	c.addi	a2,1
   12e76:	0685                	c.addi	a3,1
   12e78:	4505                	c.li	a0,1
   12e7a:	c00c                	c.sw	a1,0(s0)
   12e7c:	c048                	c.sw	a0,4(s0)
   12e7e:	c7b2                	c.swsp	a2,204(sp)
   12e80:	c5b6                	c.swsp	a3,200(sp)
   12e82:	459d                	c.li	a1,7
   12e84:	0421                	c.addi	s0,8
   12e86:	4ed5c863          	blt	a1,a3,13376 <_vfprintf_r+0x18e4>
   12e8a:	c399                	c.beqz	a5,12e90 <_vfprintf_r+0x13fe>
   12e8c:	fd7fe06f          	jal	zero,11e62 <_vfprintf_r+0x3d0>
   12e90:	4762                	c.lwsp	a4,24(sp)
   12e92:	001cf793          	andi	a5,s9,1
   12e96:	8fd9                	c.or	a5,a4
   12e98:	e399                	c.bnez	a5,12e9e <_vfprintf_r+0x140c>
   12e9a:	e03fe06f          	jal	zero,11c9c <_vfprintf_r+0x20a>
   12e9e:	5792                	c.lwsp	a5,36(sp)
   12ea0:	46ae                	c.lwsp	a3,200(sp)
   12ea2:	5732                	c.lwsp	a4,44(sp)
   12ea4:	963e                	c.add	a2,a5
   12ea6:	0685                	c.addi	a3,1
   12ea8:	c05c                	c.sw	a5,4(s0)
   12eaa:	c7b2                	c.swsp	a2,204(sp)
   12eac:	c018                	c.sw	a4,0(s0)
   12eae:	c5b6                	c.swsp	a3,200(sp)
   12eb0:	479d                	c.li	a5,7
   12eb2:	5cd7c363          	blt	a5,a3,13478 <_vfprintf_r+0x19e6>
   12eb6:	0421                	c.addi	s0,8
   12eb8:	fd1fe06f          	jal	zero,11e88 <_vfprintf_r+0x3f6>
   12ebc:	45a2                	c.lwsp	a1,8(sp)
   12ebe:	4512                	c.lwsp	a0,4(sp)
   12ec0:	01d0                	c.addi4spn	a2,sp,196
   12ec2:	c0c6                	c.swsp	a7,64(sp)
   12ec4:	de1a                	c.swsp	t1,60(sp)
   12ec6:	d876                	c.swsp	t4,48(sp)
   12ec8:	6ed000ef          	jal	ra,13db4 <__sprint_r>
   12ecc:	fe051663          	bne	a0,zero,126b8 <_vfprintf_r+0xc26>
   12ed0:	0a714783          	lbu	a5,167(sp)
   12ed4:	463e                	c.lwsp	a2,204(sp)
   12ed6:	5ec2                	c.lwsp	t4,48(sp)
   12ed8:	5372                	c.lwsp	t1,60(sp)
   12eda:	4886                	c.lwsp	a7,64(sp)
   12edc:	c7ed                	c.beqz	a5,12fc6 <_vfprintf_r+0x1534>
   12ede:	87ce                	c.mv	a5,s3
   12ee0:	452e                	c.lwsp	a0,200(sp)
   12ee2:	4981                	c.li	s3,0
   12ee4:	8456                	c.mv	s0,s5
   12ee6:	d4ffe06f          	jal	zero,11c34 <_vfprintf_r+0x1a2>
   12eea:	0a0103a3          	sb	zero,167(sp)
   12eee:	3c0a4e63          	blt	s4,zero,132ca <_vfprintf_r+0x1838>
   12ef2:	b7fcfc93          	andi	s9,s9,-1153
   12ef6:	bda5                	c.j	12d6e <_vfprintf_r+0x12dc>
   12ef8:	4512                	c.lwsp	a0,4(sp)
   12efa:	d13fd0ef          	jal	ra,10c0c <__sinit>
   12efe:	47a2                	c.lwsp	a5,8(sp)
   12f00:	bcffe06f          	jal	zero,11ace <_vfprintf_r+0x3c>
   12f04:	45a2                	c.lwsp	a1,8(sp)
   12f06:	4512                	c.lwsp	a0,4(sp)
   12f08:	01d0                	c.addi4spn	a2,sp,196
   12f0a:	d01a                	c.swsp	t1,32(sp)
   12f0c:	ce76                	c.swsp	t4,28(sp)
   12f0e:	6a7000ef          	jal	ra,13db4 <__sprint_r>
   12f12:	fa051363          	bne	a0,zero,126b8 <_vfprintf_r+0xc26>
   12f16:	463e                	c.lwsp	a2,204(sp)
   12f18:	5302                	c.lwsp	t1,32(sp)
   12f1a:	4ef2                	c.lwsp	t4,28(sp)
   12f1c:	8456                	c.mv	s0,s5
   12f1e:	998ff06f          	jal	zero,120b6 <_vfprintf_r+0x624>
   12f22:	89de                	c.mv	s3,s7
   12f24:	f96ff06f          	jal	zero,126ba <_vfprintf_r+0xc28>
   12f28:	8ea2                	c.mv	t4,s0
   12f2a:	834e                	c.mv	t1,s3
   12f2c:	843e                	c.mv	s0,a5
   12f2e:	89de                	c.mv	s3,s7
   12f30:	9652                	c.add	a2,s4
   12f32:	0685                	c.addi	a3,1
   12f34:	c7b2                	c.swsp	a2,204(sp)
   12f36:	c5b6                	c.swsp	a3,200(sp)
   12f38:	01342023          	sw	s3,0(s0)
   12f3c:	01442223          	sw	s4,4(s0)
   12f40:	479d                	c.li	a5,7
   12f42:	00d7c463          	blt	a5,a3,12f4a <_vfprintf_r+0x14b8>
   12f46:	d55fe06f          	jal	zero,11c9a <_vfprintf_r+0x208>
   12f4a:	f55fe06f          	jal	zero,11e9e <_vfprintf_r+0x40c>
   12f4e:	464e                	c.lwsp	a2,208(sp)
   12f50:	46de                	c.lwsp	a3,212(sp)
   12f52:	476e                	c.lwsp	a4,216(sp)
   12f54:	47fe                	c.lwsp	a5,220(sp)
   12f56:	010c                	c.addi4spn	a1,sp,128
   12f58:	0908                	c.addi4spn	a0,sp,144
   12f5a:	c102                	c.swsp	zero,128(sp)
   12f5c:	c302                	c.swsp	zero,132(sp)
   12f5e:	c502                	c.swsp	zero,136(sp)
   12f60:	c702                	c.swsp	zero,140(sp)
   12f62:	c932                	c.swsp	a2,144(sp)
   12f64:	cb36                	c.swsp	a3,148(sp)
   12f66:	cd3a                	c.swsp	a4,152(sp)
   12f68:	cf3e                	c.swsp	a5,156(sp)
   12f6a:	038080ef          	jal	ra,1afa2 <__letf2>
   12f6e:	4ed2                	c.lwsp	t4,20(sp)
   12f70:	4372                	c.lwsp	t1,28(sp)
   12f72:	5882                	c.lwsp	a7,32(sp)
   12f74:	f7fcfc93          	andi	s9,s9,-129
   12f78:	1e0547e3          	blt	a0,zero,13966 <_vfprintf_r+0x1ed4>
   12f7c:	04700713          	addi	a4,zero,71
   12f80:	0a714783          	lbu	a5,167(sp)
   12f84:	51175b63          	bge	a4,a7,1349a <_vfprintf_r+0x1a08>
   12f88:	6b75                	c.lui	s6,0x1d
   12f8a:	31cb0b13          	addi	s6,s6,796 # 1d31c <__extenddftf2+0x886>
   12f8e:	efd9                	c.bnez	a5,1302c <_vfprintf_r+0x159a>
   12f90:	4d8d                	c.li	s11,3
   12f92:	8d6e                	c.mv	s10,s11
   12f94:	802ff06f          	jal	zero,11f96 <_vfprintf_r+0x504>
   12f98:	47c2                	c.lwsp	a5,16(sp)
   12f9a:	46b2                	c.lwsp	a3,12(sp)
   12f9c:	439c                	c.lw	a5,0(a5)
   12f9e:	c394                	c.sw	a3,0(a5)
   12fa0:	c83a                	c.swsp	a4,16(sp)
   12fa2:	d06ff06f          	jal	zero,124a8 <_vfprintf_r+0xa16>
   12fa6:	65f5                	c.lui	a1,0x1d
   12fa8:	32858513          	addi	a0,a1,808 # 1d328 <__extenddftf2+0x892>
   12fac:	00f77613          	andi	a2,a4,15
   12fb0:	962a                	c.add	a2,a0
   12fb2:	c83e                	c.swsp	a5,16(sp)
   12fb4:	8cc2                	c.mv	s9,a6
   12fb6:	00064783          	lbu	a5,0(a2)
   12fba:	32858593          	addi	a1,a1,808
   12fbe:	4609                	c.li	a2,2
   12fc0:	07800893          	addi	a7,zero,120
   12fc4:	b1b9                	c.j	12c12 <_vfprintf_r+0x1180>
   12fc6:	44098263          	beq	s3,zero,1340a <_vfprintf_r+0x1978>
   12fca:	452e                	c.lwsp	a0,200(sp)
   12fcc:	4981                	c.li	s3,0
   12fce:	8456                	c.mv	s0,s5
   12fd0:	c83fe06f          	jal	zero,11c52 <_vfprintf_r+0x1c0>
   12fd4:	200cf693          	andi	a3,s9,512
   12fd8:	44068863          	beq	a3,zero,13428 <_vfprintf_r+0x1996>
   12fdc:	0ff7f793          	andi	a5,a5,255
   12fe0:	c83a                	c.swsp	a4,16(sp)
   12fe2:	8866                	c.mv	a6,s9
   12fe4:	4601                	c.li	a2,0
   12fe6:	a84ff06f          	jal	zero,1226a <_vfprintf_r+0x7d8>
   12fea:	200cf793          	andi	a5,s9,512
   12fee:	44078263          	beq	a5,zero,13432 <_vfprintf_r+0x19a0>
   12ff2:	0d62                	c.slli	s10,0x18
   12ff4:	418d5d13          	srai	s10,s10,0x18
   12ff8:	41fd5d93          	srai	s11,s10,0x1f
   12ffc:	c83a                	c.swsp	a4,16(sp)
   12ffe:	876e                	c.mv	a4,s11
   13000:	982ff06f          	jal	zero,12182 <_vfprintf_r+0x6f0>
   13004:	4dfe                	c.lwsp	s11,220(sp)
   13006:	800007b7          	lui	a5,0x80000
   1300a:	f7fcfc93          	andi	s9,s9,-129
   1300e:	00fdfbb3          	and	s7,s11,a5
   13012:	440b8063          	beq	s7,zero,13452 <_vfprintf_r+0x19c0>
   13016:	02d00793          	addi	a5,zero,45
   1301a:	0af103a3          	sb	a5,167(sp)
   1301e:	04700793          	addi	a5,zero,71
   13022:	3517d0e3          	bge	a5,a7,13b62 <_vfprintf_r+0x20d0>
   13026:	6b75                	c.lui	s6,0x1d
   13028:	324b0b13          	addi	s6,s6,804 # 1d324 <__extenddftf2+0x88e>
   1302c:	ca02                	c.swsp	zero,20(sp)
   1302e:	4d8d                	c.li	s11,3
   13030:	4a01                	c.li	s4,0
   13032:	d002                	c.swsp	zero,32(sp)
   13034:	ce02                	c.swsp	zero,28(sp)
   13036:	4b81                	c.li	s7,0
   13038:	4d11                	c.li	s10,4
   1303a:	be5fe06f          	jal	zero,11c1e <_vfprintf_r+0x18c>
   1303e:	8ece                	c.mv	t4,s3
   13040:	8352                	c.mv	t1,s4
   13042:	89e2                	c.mv	s3,s8
   13044:	8a22                	c.mv	s4,s0
   13046:	843e                	c.mv	s0,a5
   13048:	9652                	c.add	a2,s4
   1304a:	0585                	c.addi	a1,1
   1304c:	01342023          	sw	s3,0(s0)
   13050:	01442223          	sw	s4,4(s0)
   13054:	c7b2                	c.swsp	a2,204(sp)
   13056:	c5ae                	c.swsp	a1,200(sp)
   13058:	479d                	c.li	a5,7
   1305a:	0421                	c.addi	s0,8
   1305c:	fcb7dc63          	bge	a5,a1,12834 <_vfprintf_r+0xda2>
   13060:	45a2                	c.lwsp	a1,8(sp)
   13062:	4512                	c.lwsp	a0,4(sp)
   13064:	01d0                	c.addi4spn	a2,sp,196
   13066:	de1a                	c.swsp	t1,60(sp)
   13068:	d876                	c.swsp	t4,48(sp)
   1306a:	54b000ef          	jal	ra,13db4 <__sprint_r>
   1306e:	e4051563          	bne	a0,zero,126b8 <_vfprintf_r+0xc26>
   13072:	463e                	c.lwsp	a2,204(sp)
   13074:	5372                	c.lwsp	t1,60(sp)
   13076:	5ec2                	c.lwsp	t4,48(sp)
   13078:	8456                	c.mv	s0,s5
   1307a:	fbaff06f          	jal	zero,12834 <_vfprintf_r+0xda2>
   1307e:	c83a                	c.swsp	a4,16(sp)
   13080:	8cf2                	c.mv	s9,t3
   13082:	96eff06f          	jal	zero,121f0 <_vfprintf_r+0x75e>
   13086:	4616                	c.lwsp	a2,68(sp)
   13088:	55e2                	c.lwsp	a1,56(sp)
   1308a:	ce7a                	c.swsp	t5,28(sp)
   1308c:	40cb06b3          	sub	a3,s6,a2
   13090:	8536                	c.mv	a0,a3
   13092:	cc46                	c.swsp	a7,24(sp)
   13094:	ca36                	c.swsp	a3,20(sp)
   13096:	546010ef          	jal	ra,145dc <strncpy>
   1309a:	01bd07b3          	add	a5,s10,s11
   1309e:	01a7b5b3          	sltu	a1,a5,s10
   130a2:	ccccd637          	lui	a2,0xccccd
   130a6:	ccd60613          	addi	a2,a2,-819 # cccccccd <__BSS_END__+0xcccae279>
   130aa:	97ae                	c.add	a5,a1
   130ac:	02c7b5b3          	mulhu	a1,a5,a2
   130b0:	5722                	c.lwsp	a4,40(sp)
   130b2:	ccccd537          	lui	a0,0xccccd
   130b6:	ccc50513          	addi	a0,a0,-820 # cccccccc <__BSS_END__+0xcccae278>
   130ba:	00174303          	lbu	t1,1(a4)
   130be:	46d2                	c.lwsp	a3,20(sp)
   130c0:	48e2                	c.lwsp	a7,24(sp)
   130c2:	00603333          	sltu	t1,zero,t1
   130c6:	971a                	c.add	a4,t1
   130c8:	d43a                	c.swsp	a4,40(sp)
   130ca:	0025d313          	srli	t1,a1,0x2
   130ce:	99f1                	c.andi	a1,-4
   130d0:	959a                	c.add	a1,t1
   130d2:	8f8d                	c.sub	a5,a1
   130d4:	40fd07b3          	sub	a5,s10,a5
   130d8:	00fd35b3          	sltu	a1,s10,a5
   130dc:	40bd85b3          	sub	a1,s11,a1
   130e0:	02a78533          	mul	a0,a5,a0
   130e4:	4f72                	c.lwsp	t5,28(sp)
   130e6:	fff68b13          	addi	s6,a3,-1
   130ea:	02c585b3          	mul	a1,a1,a2
   130ee:	02c7b333          	mulhu	t1,a5,a2
   130f2:	95aa                	c.add	a1,a0
   130f4:	02c787b3          	mul	a5,a5,a2
   130f8:	959a                	c.add	a1,t1
   130fa:	01f59513          	slli	a0,a1,0x1f
   130fe:	0015dd93          	srli	s11,a1,0x1
   13102:	4585                	c.li	a1,1
   13104:	8385                	c.srli	a5,0x1
   13106:	00f56d33          	or	s10,a0,a5
   1310a:	01bd07b3          	add	a5,s10,s11
   1310e:	01a7b533          	sltu	a0,a5,s10
   13112:	97aa                	c.add	a5,a0
   13114:	02c7b533          	mulhu	a0,a5,a2
   13118:	00255313          	srli	t1,a0,0x2
   1311c:	9971                	c.andi	a0,-4
   1311e:	951a                	c.add	a0,t1
   13120:	8f89                	c.sub	a5,a0
   13122:	40fd07b3          	sub	a5,s10,a5
   13126:	00fd3533          	sltu	a0,s10,a5
   1312a:	40ad8533          	sub	a0,s11,a0
   1312e:	02c7b333          	mulhu	t1,a5,a2
   13132:	02c50533          	mul	a0,a0,a2
   13136:	02c787b3          	mul	a5,a5,a2
   1313a:	00650633          	add	a2,a0,t1
   1313e:	067e                	c.slli	a2,0x1f
   13140:	8385                	c.srli	a5,0x1
   13142:	8fd1                	c.or	a5,a2
   13144:	00279613          	slli	a2,a5,0x2
   13148:	97b2                	c.add	a5,a2
   1314a:	0786                	c.slli	a5,0x1
   1314c:	40fd07b3          	sub	a5,s10,a5
   13150:	03078793          	addi	a5,a5,48 # 80000030 <__BSS_END__+0x7ffe15dc>
   13154:	fef68fa3          	sb	a5,-1(a3)
   13158:	ccccd7b7          	lui	a5,0xccccd
   1315c:	ccd78713          	addi	a4,a5,-819 # cccccccd <__BSS_END__+0xcccae279>
   13160:	ccc78813          	addi	a6,a5,-820
   13164:	a00ff06f          	jal	zero,12364 <_vfprintf_r+0x8d2>
   13168:	47e2                	c.lwsp	a5,24(sp)
   1316a:	5b82                	c.lwsp	s7,32(sp)
   1316c:	c6da                	c.swsp	s6,76(sp)
   1316e:	97da                	c.add	a5,s6
   13170:	d83e                	c.swsp	a5,48(sp)
   13172:	47f2                	c.lwsp	a5,28(sp)
   13174:	de76                	c.swsp	t4,60(sp)
   13176:	c09a                	c.swsp	t1,64(sp)
   13178:	c4e6                	c.swsp	s9,72(sp)
   1317a:	d06a                	c.swsp	s10,32(sp)
   1317c:	86a2                	c.mv	a3,s0
   1317e:	8b4e                	c.mv	s6,s3
   13180:	4416                	c.lwsp	s0,68(sp)
   13182:	59a2                	c.lwsp	s3,40(sp)
   13184:	4a1d                	c.li	s4,7
   13186:	4dc1                	c.li	s11,16
   13188:	6c79                	c.lui	s8,0x1e
   1318a:	06f05563          	bge	zero,a5,131f4 <_vfprintf_r+0x1762>
   1318e:	11705363          	bge	zero,s7,13294 <_vfprintf_r+0x1802>
   13192:	1bfd                	c.addi	s7,-1
   13194:	47ae                	c.lwsp	a5,200(sp)
   13196:	5762                	c.lwsp	a4,56(sp)
   13198:	9622                	c.add	a2,s0
   1319a:	0785                	c.addi	a5,1
   1319c:	c298                	c.sw	a4,0(a3)
   1319e:	c2c0                	c.sw	s0,4(a3)
   131a0:	c7b2                	c.swsp	a2,204(sp)
   131a2:	c5be                	c.swsp	a5,200(sp)
   131a4:	06a1                	c.addi	a3,8
   131a6:	0efa4c63          	blt	s4,a5,1329e <_vfprintf_r+0x180c>
   131aa:	57c2                	c.lwsp	a5,48(sp)
   131ac:	0009c703          	lbu	a4,0(s3)
   131b0:	41678cb3          	sub	s9,a5,s6
   131b4:	01975363          	bge	a4,s9,131ba <_vfprintf_r+0x1728>
   131b8:	8cba                	c.mv	s9,a4
   131ba:	03905063          	bge	zero,s9,131da <_vfprintf_r+0x1748>
   131be:	472e                	c.lwsp	a4,200(sp)
   131c0:	9666                	c.add	a2,s9
   131c2:	c7b2                	c.swsp	a2,204(sp)
   131c4:	0705                	c.addi	a4,1
   131c6:	0166a023          	sw	s6,0(a3)
   131ca:	0196a223          	sw	s9,4(a3)
   131ce:	c5ba                	c.swsp	a4,200(sp)
   131d0:	0eea4163          	blt	s4,a4,132b2 <_vfprintf_r+0x1820>
   131d4:	0009c703          	lbu	a4,0(s3)
   131d8:	06a1                	c.addi	a3,8
   131da:	fffcc593          	xori	a1,s9,-1
   131de:	85fd                	c.srai	a1,0x1f
   131e0:	00bcf7b3          	and	a5,s9,a1
   131e4:	40f70cb3          	sub	s9,a4,a5
   131e8:	03904763          	blt	zero,s9,13216 <_vfprintf_r+0x1784>
   131ec:	9b3a                	c.add	s6,a4
   131ee:	47f2                	c.lwsp	a5,28(sp)
   131f0:	f8f04fe3          	blt	zero,a5,1318e <_vfprintf_r+0x16fc>
   131f4:	f9704fe3          	blt	zero,s7,13192 <_vfprintf_r+0x1700>
   131f8:	47e2                	c.lwsp	a5,24(sp)
   131fa:	d44e                	c.swsp	s3,40(sp)
   131fc:	89da                	c.mv	s3,s6
   131fe:	4b36                	c.lwsp	s6,76(sp)
   13200:	5ef2                	c.lwsp	t4,60(sp)
   13202:	4306                	c.lwsp	t1,64(sp)
   13204:	97da                	c.add	a5,s6
   13206:	4ca6                	c.lwsp	s9,72(sp)
   13208:	5d02                	c.lwsp	s10,32(sp)
   1320a:	8436                	c.mv	s0,a3
   1320c:	e337fa63          	bgeu	a5,s3,12840 <_vfprintf_r+0xdae>
   13210:	89be                	c.mv	s3,a5
   13212:	e2eff06f          	jal	zero,12840 <_vfprintf_r+0xdae>
   13216:	6879                	c.lui	a6,0x1e
   13218:	472e                	c.lwsp	a4,200(sp)
   1321a:	aac80d13          	addi	s10,a6,-1364 # 1daac <zeroes.0>
   1321e:	059ddc63          	bge	s11,s9,13276 <_vfprintf_r+0x17e4>
   13222:	aacc0d13          	addi	s10,s8,-1364 # 1daac <zeroes.0>
   13226:	87ea                	c.mv	a5,s10
   13228:	8d5e                	c.mv	s10,s7
   1322a:	8ba2                	c.mv	s7,s0
   1322c:	8466                	c.mv	s0,s9
   1322e:	8cce                	c.mv	s9,s3
   13230:	89be                	c.mv	s3,a5
   13232:	a021                	c.j	1323a <_vfprintf_r+0x17a8>
   13234:	1441                	c.addi	s0,-16
   13236:	028dda63          	bge	s11,s0,1326a <_vfprintf_r+0x17d8>
   1323a:	0641                	c.addi	a2,16
   1323c:	0705                	c.addi	a4,1
   1323e:	0136a023          	sw	s3,0(a3)
   13242:	01b6a223          	sw	s11,4(a3)
   13246:	c7b2                	c.swsp	a2,204(sp)
   13248:	c5ba                	c.swsp	a4,200(sp)
   1324a:	06a1                	c.addi	a3,8
   1324c:	feea54e3          	bge	s4,a4,13234 <_vfprintf_r+0x17a2>
   13250:	45a2                	c.lwsp	a1,8(sp)
   13252:	4512                	c.lwsp	a0,4(sp)
   13254:	01d0                	c.addi4spn	a2,sp,196
   13256:	35f000ef          	jal	ra,13db4 <__sprint_r>
   1325a:	c4051f63          	bne	a0,zero,126b8 <_vfprintf_r+0xc26>
   1325e:	1441                	c.addi	s0,-16
   13260:	463e                	c.lwsp	a2,204(sp)
   13262:	472e                	c.lwsp	a4,200(sp)
   13264:	86d6                	c.mv	a3,s5
   13266:	fc8dcae3          	blt	s11,s0,1323a <_vfprintf_r+0x17a8>
   1326a:	87ce                	c.mv	a5,s3
   1326c:	89e6                	c.mv	s3,s9
   1326e:	8ca2                	c.mv	s9,s0
   13270:	845e                	c.mv	s0,s7
   13272:	8bea                	c.mv	s7,s10
   13274:	8d3e                	c.mv	s10,a5
   13276:	9666                	c.add	a2,s9
   13278:	0705                	c.addi	a4,1
   1327a:	c7b2                	c.swsp	a2,204(sp)
   1327c:	c5ba                	c.swsp	a4,200(sp)
   1327e:	01a6a023          	sw	s10,0(a3)
   13282:	0196a223          	sw	s9,4(a3)
   13286:	64ea4463          	blt	s4,a4,138ce <_vfprintf_r+0x1e3c>
   1328a:	0009c703          	lbu	a4,0(s3)
   1328e:	06a1                	c.addi	a3,8
   13290:	9b3a                	c.add	s6,a4
   13292:	bfb1                	c.j	131ee <_vfprintf_r+0x175c>
   13294:	47f2                	c.lwsp	a5,28(sp)
   13296:	19fd                	c.addi	s3,-1
   13298:	17fd                	c.addi	a5,-1
   1329a:	ce3e                	c.swsp	a5,28(sp)
   1329c:	bde5                	c.j	13194 <_vfprintf_r+0x1702>
   1329e:	45a2                	c.lwsp	a1,8(sp)
   132a0:	4512                	c.lwsp	a0,4(sp)
   132a2:	01d0                	c.addi4spn	a2,sp,196
   132a4:	311000ef          	jal	ra,13db4 <__sprint_r>
   132a8:	c0051863          	bne	a0,zero,126b8 <_vfprintf_r+0xc26>
   132ac:	463e                	c.lwsp	a2,204(sp)
   132ae:	86d6                	c.mv	a3,s5
   132b0:	bded                	c.j	131aa <_vfprintf_r+0x1718>
   132b2:	45a2                	c.lwsp	a1,8(sp)
   132b4:	4512                	c.lwsp	a0,4(sp)
   132b6:	01d0                	c.addi4spn	a2,sp,196
   132b8:	2fd000ef          	jal	ra,13db4 <__sprint_r>
   132bc:	be051e63          	bne	a0,zero,126b8 <_vfprintf_r+0xc26>
   132c0:	0009c703          	lbu	a4,0(s3)
   132c4:	463e                	c.lwsp	a2,204(sp)
   132c6:	86d6                	c.mv	a3,s5
   132c8:	bf09                	c.j	131da <_vfprintf_r+0x1748>
   132ca:	0005c783          	lbu	a5,0(a1)
   132ce:	bffcfc93          	andi	s9,s9,-1025
   132d2:	4601                	c.li	a2,0
   132d4:	18f107a3          	sb	a5,399(sp)
   132d8:	18f10b13          	addi	s6,sp,399
   132dc:	b8a1                	c.j	12b34 <_vfprintf_r+0x10a2>
   132de:	4512                	c.lwsp	a0,4(sp)
   132e0:	09010d93          	addi	s11,sp,144
   132e4:	191c                	c.addi4spn	a5,sp,176
   132e6:	85ee                	c.mv	a1,s11
   132e8:	0bc10813          	addi	a6,sp,188
   132ec:	1178                	c.addi4spn	a4,sp,172
   132ee:	86d2                	c.mv	a3,s4
   132f0:	4609                	c.li	a2,2
   132f2:	c6c6                	c.swsp	a7,76(sp)
   132f4:	c49a                	c.swsp	t1,72(sp)
   132f6:	c0f6                	c.swsp	t4,64(sp)
   132f8:	c91e                	c.swsp	t2,144(sp)
   132fa:	de1e                	c.swsp	t2,60(sp)
   132fc:	cb16                	c.swsp	t0,148(sp)
   132fe:	d016                	c.swsp	t0,32(sp)
   13300:	cd7e                	c.swsp	t6,152(sp)
   13302:	ce7e                	c.swsp	t6,28(sp)
   13304:	cf7a                	c.swsp	t5,156(sp)
   13306:	cc7a                	c.swsp	t5,24(sp)
   13308:	6b4010ef          	jal	ra,149bc <_ldtoa_r>
   1330c:	001cf793          	andi	a5,s9,1
   13310:	4f62                	c.lwsp	t5,24(sp)
   13312:	4ff2                	c.lwsp	t6,28(sp)
   13314:	5282                	c.lwsp	t0,32(sp)
   13316:	53f2                	c.lwsp	t2,60(sp)
   13318:	4e86                	c.lwsp	t4,64(sp)
   1331a:	4326                	c.lwsp	t1,72(sp)
   1331c:	48b6                	c.lwsp	a7,76(sp)
   1331e:	8b2a                	c.mv	s6,a0
   13320:	7c079063          	bne	a5,zero,13ae0 <_vfprintf_r+0x204e>
   13324:	577a                	c.lwsp	a4,188(sp)
   13326:	5bba                	c.lwsp	s7,172(sp)
   13328:	57f5                	c.li	a5,-3
   1332a:	8f09                	c.sub	a4,a0
   1332c:	cc3a                	c.swsp	a4,24(sp)
   1332e:	6efbc363          	blt	s7,a5,13a14 <_vfprintf_r+0x1f82>
   13332:	5d7a4b63          	blt	s4,s7,13908 <_vfprintf_r+0x1e76>
   13336:	76ebca63          	blt	s7,a4,13aaa <_vfprintf_r+0x2018>
   1333a:	8dde                	c.mv	s11,s7
   1333c:	400cfe13          	andi	t3,s9,1024
   13340:	000e0463          	beq	t3,zero,13348 <_vfprintf_r+0x18b6>
   13344:	037047e3          	blt	zero,s7,13b72 <_vfprintf_r+0x20e0>
   13348:	fffdc713          	xori	a4,s11,-1
   1334c:	877d                	c.srai	a4,0x1f
   1334e:	00edfd33          	and	s10,s11,a4
   13352:	06700893          	addi	a7,zero,103
   13356:	8ce2                	c.mv	s9,s8
   13358:	d002                	c.swsp	zero,32(sp)
   1335a:	ce02                	c.swsp	zero,28(sp)
   1335c:	57c2                	c.lwsp	a5,48(sp)
   1335e:	002cf613          	andi	a2,s9,2
   13362:	54078863          	beq	a5,zero,138b2 <_vfprintf_r+0x1e20>
   13366:	02d00f93          	addi	t6,zero,45
   1336a:	0bf103a3          	sb	t6,167(sp)
   1336e:	0d05                	c.addi	s10,1
   13370:	4a01                	c.li	s4,0
   13372:	fdaff06f          	jal	zero,12b4c <_vfprintf_r+0x10ba>
   13376:	45a2                	c.lwsp	a1,8(sp)
   13378:	4512                	c.lwsp	a0,4(sp)
   1337a:	01d0                	c.addi4spn	a2,sp,196
   1337c:	d01a                	c.swsp	t1,32(sp)
   1337e:	ce76                	c.swsp	t4,28(sp)
   13380:	235000ef          	jal	ra,13db4 <__sprint_r>
   13384:	b2051a63          	bne	a0,zero,126b8 <_vfprintf_r+0xc26>
   13388:	57ba                	c.lwsp	a5,172(sp)
   1338a:	463e                	c.lwsp	a2,204(sp)
   1338c:	5302                	c.lwsp	t1,32(sp)
   1338e:	4ef2                	c.lwsp	t4,28(sp)
   13390:	8456                	c.mv	s0,s5
   13392:	bce5                	c.j	12e8a <_vfprintf_r+0x13f8>
   13394:	0a714783          	lbu	a5,167(sp)
   13398:	4d01                	c.li	s10,0
   1339a:	4d81                	c.li	s11,0
   1339c:	19010b13          	addi	s6,sp,400
   133a0:	e75fe06f          	jal	zero,12214 <_vfprintf_r+0x782>
   133a4:	45a2                	c.lwsp	a1,8(sp)
   133a6:	4512                	c.lwsp	a0,4(sp)
   133a8:	01d0                	c.addi4spn	a2,sp,196
   133aa:	de1a                	c.swsp	t1,60(sp)
   133ac:	d876                	c.swsp	t4,48(sp)
   133ae:	207000ef          	jal	ra,13db4 <__sprint_r>
   133b2:	b0051363          	bne	a0,zero,126b8 <_vfprintf_r+0xc26>
   133b6:	463e                	c.lwsp	a2,204(sp)
   133b8:	5372                	c.lwsp	t1,60(sp)
   133ba:	5ec2                	c.lwsp	t4,48(sp)
   133bc:	8456                	c.mv	s0,s5
   133be:	c64ff06f          	jal	zero,12822 <_vfprintf_r+0xd90>
   133c2:	463e                	c.lwsp	a2,204(sp)
   133c4:	452e                	c.lwsp	a0,200(sp)
   133c6:	004cf713          	andi	a4,s9,4
   133ca:	d03a                	c.swsp	a4,32(sp)
   133cc:	85b2                	c.mv	a1,a2
   133ce:	86aa                	c.mv	a3,a0
   133d0:	94070be3          	beq	a4,zero,12d26 <_vfprintf_r+0x1294>
   133d4:	c83e                	c.swsp	a5,16(sp)
   133d6:	8cc2                	c.mv	s9,a6
   133d8:	4d81                	c.li	s11,0
   133da:	d002                	c.swsp	zero,32(sp)
   133dc:	ce02                	c.swsp	zero,28(sp)
   133de:	4b81                	c.li	s7,0
   133e0:	ca02                	c.swsp	zero,20(sp)
   133e2:	4d09                	c.li	s10,2
   133e4:	19010b13          	addi	s6,sp,400
   133e8:	07800893          	addi	a7,zero,120
   133ec:	4991                	c.li	s3,4
   133ee:	865fe06f          	jal	zero,11c52 <_vfprintf_r+0x1c0>
   133f2:	8d3e                	c.mv	s10,a5
   133f4:	b061                	c.j	12c7c <_vfprintf_r+0x11ea>
   133f6:	9b3a                	c.add	s6,a4
   133f8:	413b0b33          	sub	s6,s6,s3
   133fc:	41470a33          	sub	s4,a4,s4
   13400:	cb6a5163          	bge	s4,s6,128a2 <_vfprintf_r+0xe10>
   13404:	8b52                	c.mv	s6,s4
   13406:	c9cff06f          	jal	zero,128a2 <_vfprintf_r+0xe10>
   1340a:	8456                	c.mv	s0,s5
   1340c:	867fe06f          	jal	zero,11c72 <_vfprintf_r+0x1e0>
   13410:	0ff77713          	andi	a4,a4,255
   13414:	4681                	c.li	a3,0
   13416:	fc2ff06f          	jal	zero,12bd8 <_vfprintf_r+0x1146>
   1341a:	0ff6fd13          	andi	s10,a3,255
   1341e:	4d81                	c.li	s11,0
   13420:	e60a5c63          	bge	s4,zero,12a98 <_vfprintf_r+0x1006>
   13424:	f19fe06f          	jal	zero,1233c <_vfprintf_r+0x8aa>
   13428:	c83a                	c.swsp	a4,16(sp)
   1342a:	8866                	c.mv	a6,s9
   1342c:	4601                	c.li	a2,0
   1342e:	e3dfe06f          	jal	zero,1226a <_vfprintf_r+0x7d8>
   13432:	41fd5d93          	srai	s11,s10,0x1f
   13436:	c83a                	c.swsp	a4,16(sp)
   13438:	876e                	c.mv	a4,s11
   1343a:	d49fe06f          	jal	zero,12182 <_vfprintf_r+0x6f0>
   1343e:	47c2                	c.lwsp	a5,16(sp)
   13440:	46b2                	c.lwsp	a3,12(sp)
   13442:	c83a                	c.swsp	a4,16(sp)
   13444:	439c                	c.lw	a5,0(a5)
   13446:	00d79023          	sh	a3,0(a5)
   1344a:	85eff06f          	jal	zero,124a8 <_vfprintf_r+0xa16>
   1344e:	4d05                	c.li	s10,1
   13450:	ba05                	c.j	12d80 <_vfprintf_r+0x12ee>
   13452:	04700713          	addi	a4,zero,71
   13456:	0a714783          	lbu	a5,167(sp)
   1345a:	77175863          	bge	a4,a7,13bca <_vfprintf_r+0x2138>
   1345e:	6b75                	c.lui	s6,0x1d
   13460:	324b0b13          	addi	s6,s6,804 # 1d324 <__extenddftf2+0x88e>
   13464:	080799e3          	bne	a5,zero,13cf6 <_vfprintf_r+0x2264>
   13468:	4d8d                	c.li	s11,3
   1346a:	8d6e                	c.mv	s10,s11
   1346c:	4a01                	c.li	s4,0
   1346e:	d002                	c.swsp	zero,32(sp)
   13470:	ce02                	c.swsp	zero,28(sp)
   13472:	ca02                	c.swsp	zero,20(sp)
   13474:	faafe06f          	jal	zero,11c1e <_vfprintf_r+0x18c>
   13478:	45a2                	c.lwsp	a1,8(sp)
   1347a:	4512                	c.lwsp	a0,4(sp)
   1347c:	01d0                	c.addi4spn	a2,sp,196
   1347e:	d01a                	c.swsp	t1,32(sp)
   13480:	ce76                	c.swsp	t4,28(sp)
   13482:	133000ef          	jal	ra,13db4 <__sprint_r>
   13486:	a2051963          	bne	a0,zero,126b8 <_vfprintf_r+0xc26>
   1348a:	57ba                	c.lwsp	a5,172(sp)
   1348c:	463e                	c.lwsp	a2,204(sp)
   1348e:	46ae                	c.lwsp	a3,200(sp)
   13490:	5302                	c.lwsp	t1,32(sp)
   13492:	4ef2                	c.lwsp	t4,28(sp)
   13494:	8456                	c.mv	s0,s5
   13496:	9ebfe06f          	jal	zero,11e80 <_vfprintf_r+0x3ee>
   1349a:	6b75                	c.lui	s6,0x1d
   1349c:	318b0b13          	addi	s6,s6,792 # 1d318 <__extenddftf2+0x882>
   134a0:	b4fd                	c.j	12f8e <_vfprintf_r+0x14fc>
   134a2:	05800793          	addi	a5,zero,88
   134a6:	03000713          	addi	a4,zero,48
   134aa:	0af104a3          	sb	a5,169(sp)
   134ae:	0ae10423          	sb	a4,168(sp)
   134b2:	06300793          	addi	a5,zero,99
   134b6:	ca02                	c.swsp	zero,20(sp)
   134b8:	002cec93          	ori	s9,s9,2
   134bc:	12c10b13          	addi	s6,sp,300
   134c0:	0147c463          	blt	a5,s4,134c8 <_vfprintf_r+0x1a36>
   134c4:	93bfe06f          	jal	zero,11dfe <_vfprintf_r+0x36c>
   134c8:	4512                	c.lwsp	a0,4(sp)
   134ca:	001a0593          	addi	a1,s4,1
   134ce:	ce46                	c.swsp	a7,28(sp)
   134d0:	cc1a                	c.swsp	t1,24(sp)
   134d2:	ca76                	c.swsp	t4,20(sp)
   134d4:	df7fc0ef          	jal	ra,102ca <_malloc_r>
   134d8:	4ed2                	c.lwsp	t4,20(sp)
   134da:	4362                	c.lwsp	t1,24(sp)
   134dc:	48f2                	c.lwsp	a7,28(sp)
   134de:	8b2a                	c.mv	s6,a0
   134e0:	7e050f63          	beq	a0,zero,13cde <_vfprintf_r+0x224c>
   134e4:	ca2a                	c.swsp	a0,20(sp)
   134e6:	919fe06f          	jal	zero,11dfe <_vfprintf_r+0x36c>
   134ea:	001a0793          	addi	a5,s4,1
   134ee:	cc3e                	c.swsp	a5,24(sp)
   134f0:	4609                	c.li	a2,2
   134f2:	49e2                	c.lwsp	s3,24(sp)
   134f4:	4512                	c.lwsp	a0,4(sp)
   134f6:	09010d93          	addi	s11,sp,144
   134fa:	1178                	c.addi4spn	a4,sp,172
   134fc:	86ce                	c.mv	a3,s3
   134fe:	85ee                	c.mv	a1,s11
   13500:	0bc10813          	addi	a6,sp,188
   13504:	191c                	c.addi4spn	a5,sp,176
   13506:	c8c6                	c.swsp	a7,80(sp)
   13508:	c69a                	c.swsp	t1,76(sp)
   1350a:	c4f6                	c.swsp	t4,72(sp)
   1350c:	c91e                	c.swsp	t2,144(sp)
   1350e:	c09e                	c.swsp	t2,64(sp)
   13510:	cb16                	c.swsp	t0,148(sp)
   13512:	de16                	c.swsp	t0,60(sp)
   13514:	cd7e                	c.swsp	t6,152(sp)
   13516:	d07e                	c.swsp	t6,32(sp)
   13518:	cf7a                	c.swsp	t5,156(sp)
   1351a:	ce7a                	c.swsp	t5,28(sp)
   1351c:	4a0010ef          	jal	ra,149bc <_ldtoa_r>
   13520:	48c6                	c.lwsp	a7,80(sp)
   13522:	04600693          	addi	a3,zero,70
   13526:	4f72                	c.lwsp	t5,28(sp)
   13528:	fdf8f713          	andi	a4,a7,-33
   1352c:	5f82                	c.lwsp	t6,32(sp)
   1352e:	52f2                	c.lwsp	t0,60(sp)
   13530:	4386                	c.lwsp	t2,64(sp)
   13532:	4ea6                	c.lwsp	t4,72(sp)
   13534:	4336                	c.lwsp	t1,76(sp)
   13536:	8b2a                	c.mv	s6,a0
   13538:	01350d33          	add	s10,a0,s3
   1353c:	44d70263          	beq	a4,a3,13980 <_vfprintf_r+0x1eee>
   13540:	856e                	c.mv	a0,s11
   13542:	010c                	c.addi4spn	a1,sp,128
   13544:	de46                	c.swsp	a7,60(sp)
   13546:	d01a                	c.swsp	t1,32(sp)
   13548:	ce76                	c.swsp	t4,28(sp)
   1354a:	c91e                	c.swsp	t2,144(sp)
   1354c:	cb16                	c.swsp	t0,148(sp)
   1354e:	cd7e                	c.swsp	t6,152(sp)
   13550:	cf7a                	c.swsp	t5,156(sp)
   13552:	c102                	c.swsp	zero,128(sp)
   13554:	c302                	c.swsp	zero,132(sp)
   13556:	c502                	c.swsp	zero,136(sp)
   13558:	c702                	c.swsp	zero,140(sp)
   1355a:	0bd070ef          	jal	ra,1ae16 <__eqtf2>
   1355e:	4ef2                	c.lwsp	t4,28(sp)
   13560:	5302                	c.lwsp	t1,32(sp)
   13562:	58f2                	c.lwsp	a7,60(sp)
   13564:	6c050863          	beq	a0,zero,13c34 <_vfprintf_r+0x21a2>
   13568:	55fa                	c.lwsp	a1,188(sp)
   1356a:	04500713          	addi	a4,zero,69
   1356e:	6da5f063          	bgeu	a1,s10,13c2e <_vfprintf_r+0x219c>
   13572:	03000613          	addi	a2,zero,48
   13576:	00158793          	addi	a5,a1,1
   1357a:	df3e                	c.swsp	a5,188(sp)
   1357c:	00c58023          	sb	a2,0(a1)
   13580:	55fa                	c.lwsp	a1,188(sp)
   13582:	ffa5eae3          	bltu	a1,s10,13576 <_vfprintf_r+0x1ae4>
   13586:	416586b3          	sub	a3,a1,s6
   1358a:	04700793          	addi	a5,zero,71
   1358e:	cc36                	c.swsp	a3,24(sp)
   13590:	5bba                	c.lwsp	s7,172(sp)
   13592:	36f70663          	beq	a4,a5,138fe <_vfprintf_r+0x1e6c>
   13596:	04600793          	addi	a5,zero,70
   1359a:	42f70d63          	beq	a4,a5,139d4 <_vfprintf_r+0x1f42>
   1359e:	fffb8793          	addi	a5,s7,-1
   135a2:	0b110a23          	sb	a7,180(sp)
   135a6:	d73e                	c.swsp	a5,172(sp)
   135a8:	4607cc63          	blt	a5,zero,13a20 <_vfprintf_r+0x1f8e>
   135ac:	02b00713          	addi	a4,zero,43
   135b0:	0ae10aa3          	sb	a4,181(sp)
   135b4:	4725                	c.li	a4,9
   135b6:	26f74663          	blt	a4,a5,13822 <_vfprintf_r+0x1d90>
   135ba:	03000713          	addi	a4,zero,48
   135be:	0ae10b23          	sb	a4,182(sp)
   135c2:	0b710713          	addi	a4,sp,183
   135c6:	0b14                	c.addi4spn	a3,sp,400
   135c8:	03078793          	addi	a5,a5,48
   135cc:	40d706b3          	sub	a3,a4,a3
   135d0:	00f70023          	sb	a5,0(a4)
   135d4:	0dd68793          	addi	a5,a3,221
   135d8:	da3e                	c.swsp	a5,52(sp)
   135da:	4762                	c.lwsp	a4,24(sp)
   135dc:	56d2                	c.lwsp	a3,52(sp)
   135de:	4785                	c.li	a5,1
   135e0:	00d70db3          	add	s11,a4,a3
   135e4:	56e7d563          	bge	a5,a4,13b4e <_vfprintf_r+0x20bc>
   135e8:	5792                	c.lwsp	a5,36(sp)
   135ea:	9dbe                	c.add	s11,a5
   135ec:	fffdc713          	xori	a4,s11,-1
   135f0:	bffcfe13          	andi	t3,s9,-1025
   135f4:	877d                	c.srai	a4,0x1f
   135f6:	100e6c93          	ori	s9,t3,256
   135fa:	00edfd33          	and	s10,s11,a4
   135fe:	d002                	c.swsp	zero,32(sp)
   13600:	ce02                	c.swsp	zero,28(sp)
   13602:	4b81                	c.li	s7,0
   13604:	bba1                	c.j	1335c <_vfprintf_r+0x18ca>
   13606:	09010d93          	addi	s11,sp,144
   1360a:	08010993          	addi	s3,sp,128
   1360e:	856e                	c.mv	a0,s11
   13610:	85ce                	c.mv	a1,s3
   13612:	1170                	c.addi4spn	a2,sp,172
   13614:	c4c6                	c.swsp	a7,72(sp)
   13616:	c09a                	c.swsp	t1,64(sp)
   13618:	de76                	c.swsp	t4,60(sp)
   1361a:	c11e                	c.swsp	t2,128(sp)
   1361c:	c316                	c.swsp	t0,132(sp)
   1361e:	c57e                	c.swsp	t6,136(sp)
   13620:	c77a                	c.swsp	t5,140(sp)
   13622:	23e010ef          	jal	ra,14860 <frexpl>
   13626:	454a                	c.lwsp	a0,144(sp)
   13628:	465a                	c.lwsp	a2,148(sp)
   1362a:	46ea                	c.lwsp	a3,152(sp)
   1362c:	477a                	c.lwsp	a4,156(sp)
   1362e:	3ffc07b7          	lui	a5,0x3ffc0
   13632:	c12a                	c.swsp	a0,128(sp)
   13634:	c332                	c.swsp	a2,132(sp)
   13636:	85ce                	c.mv	a1,s3
   13638:	1890                	c.addi4spn	a2,sp,112
   1363a:	856e                	c.mv	a0,s11
   1363c:	c536                	c.swsp	a3,136(sp)
   1363e:	c73a                	c.swsp	a4,140(sp)
   13640:	debe                	c.swsp	a5,124(sp)
   13642:	d882                	c.swsp	zero,112(sp)
   13644:	da82                	c.swsp	zero,116(sp)
   13646:	dc82                	c.swsp	zero,120(sp)
   13648:	241070ef          	jal	ra,1b088 <__multf3>
   1364c:	4f4a                	c.lwsp	t5,144(sp)
   1364e:	485a                	c.lwsp	a6,148(sp)
   13650:	466a                	c.lwsp	a2,152(sp)
   13652:	46fa                	c.lwsp	a3,156(sp)
   13654:	85ce                	c.mv	a1,s3
   13656:	856e                	c.mv	a0,s11
   13658:	da7a                	c.swsp	t5,52(sp)
   1365a:	d042                	c.swsp	a6,32(sp)
   1365c:	ce32                	c.swsp	a2,28(sp)
   1365e:	cc36                	c.swsp	a3,24(sp)
   13660:	c102                	c.swsp	zero,128(sp)
   13662:	c302                	c.swsp	zero,132(sp)
   13664:	c502                	c.swsp	zero,136(sp)
   13666:	c702                	c.swsp	zero,140(sp)
   13668:	7ae070ef          	jal	ra,1ae16 <__eqtf2>
   1366c:	46e2                	c.lwsp	a3,24(sp)
   1366e:	4672                	c.lwsp	a2,28(sp)
   13670:	5802                	c.lwsp	a6,32(sp)
   13672:	5f52                	c.lwsp	t5,52(sp)
   13674:	5ef2                	c.lwsp	t4,60(sp)
   13676:	4306                	c.lwsp	t1,64(sp)
   13678:	48a6                	c.lwsp	a7,72(sp)
   1367a:	e119                	c.bnez	a0,13680 <_vfprintf_r+0x1bee>
   1367c:	4785                	c.li	a5,1
   1367e:	d73e                	c.swsp	a5,172(sp)
   13680:	06100793          	addi	a5,zero,97
   13684:	5ef88363          	beq	a7,a5,13c6a <_vfprintf_r+0x21d8>
   13688:	67f5                	c.lui	a5,0x1d
   1368a:	33c78793          	addi	a5,a5,828 # 1d33c <__extenddftf2+0x8a6>
